
Sender.elf:     file format elf32-avr

Sections:
Idx Name          Size      VMA       LMA       File off  Algn
  0 .data         000002a6  00800200  0000153e  000015d2  2**0
                  CONTENTS, ALLOC, LOAD, DATA
  1 .text         0000153e  00000000  00000000  00000094  2**1
                  CONTENTS, ALLOC, LOAD, READONLY, CODE
  2 .bss          00000003  008004a6  008004a6  00001878  2**0
                  ALLOC
  3 .comment      0000005c  00000000  00000000  00001878  2**0
                  CONTENTS, READONLY
  4 .note.gnu.avr.deviceinfo 00000040  00000000  00000000  000018d4  2**2
                  CONTENTS, READONLY
  5 .debug_aranges 00000208  00000000  00000000  00001914  2**0
                  CONTENTS, READONLY, DEBUGGING
  6 .debug_info   00003d49  00000000  00000000  00001b1c  2**0
                  CONTENTS, READONLY, DEBUGGING
  7 .debug_abbrev 00001ac2  00000000  00000000  00005865  2**0
                  CONTENTS, READONLY, DEBUGGING
  8 .debug_line   00001199  00000000  00000000  00007327  2**0
                  CONTENTS, READONLY, DEBUGGING
  9 .debug_frame  00000550  00000000  00000000  000084c0  2**2
                  CONTENTS, READONLY, DEBUGGING
 10 .debug_str    00001206  00000000  00000000  00008a10  2**0
                  CONTENTS, READONLY, DEBUGGING
 11 .debug_loc    00001401  00000000  00000000  00009c16  2**0
                  CONTENTS, READONLY, DEBUGGING
 12 .debug_ranges 000001b0  00000000  00000000  0000b017  2**0
                  CONTENTS, READONLY, DEBUGGING

Disassembly of section .text:

00000000 <__vectors>:
       0:	71 c0       	rjmp	.+226    	; 0xe4 <__ctors_end>
       2:	00 00       	nop
       4:	8f c0       	rjmp	.+286    	; 0x124 <__bad_interrupt>
       6:	00 00       	nop
       8:	8d c0       	rjmp	.+282    	; 0x124 <__bad_interrupt>
       a:	00 00       	nop
       c:	8b c0       	rjmp	.+278    	; 0x124 <__bad_interrupt>
       e:	00 00       	nop
      10:	89 c0       	rjmp	.+274    	; 0x124 <__bad_interrupt>
      12:	00 00       	nop
      14:	29 c2       	rjmp	.+1106   	; 0x468 <__vector_5>
      16:	00 00       	nop
      18:	85 c0       	rjmp	.+266    	; 0x124 <__bad_interrupt>
      1a:	00 00       	nop
      1c:	83 c0       	rjmp	.+262    	; 0x124 <__bad_interrupt>
      1e:	00 00       	nop
      20:	81 c0       	rjmp	.+258    	; 0x124 <__bad_interrupt>
      22:	00 00       	nop
      24:	7f c0       	rjmp	.+254    	; 0x124 <__bad_interrupt>
      26:	00 00       	nop
      28:	7d c0       	rjmp	.+250    	; 0x124 <__bad_interrupt>
      2a:	00 00       	nop
      2c:	7b c0       	rjmp	.+246    	; 0x124 <__bad_interrupt>
      2e:	00 00       	nop
      30:	79 c0       	rjmp	.+242    	; 0x124 <__bad_interrupt>
      32:	00 00       	nop
      34:	77 c0       	rjmp	.+238    	; 0x124 <__bad_interrupt>
      36:	00 00       	nop
      38:	75 c0       	rjmp	.+234    	; 0x124 <__bad_interrupt>
      3a:	00 00       	nop
      3c:	73 c0       	rjmp	.+230    	; 0x124 <__bad_interrupt>
      3e:	00 00       	nop
      40:	71 c0       	rjmp	.+226    	; 0x124 <__bad_interrupt>
      42:	00 00       	nop
      44:	6f c0       	rjmp	.+222    	; 0x124 <__bad_interrupt>
      46:	00 00       	nop
      48:	6d c0       	rjmp	.+218    	; 0x124 <__bad_interrupt>
      4a:	00 00       	nop
      4c:	6b c0       	rjmp	.+214    	; 0x124 <__bad_interrupt>
      4e:	00 00       	nop
      50:	69 c0       	rjmp	.+210    	; 0x124 <__bad_interrupt>
      52:	00 00       	nop
      54:	67 c0       	rjmp	.+206    	; 0x124 <__bad_interrupt>
      56:	00 00       	nop
      58:	65 c0       	rjmp	.+202    	; 0x124 <__bad_interrupt>
      5a:	00 00       	nop
      5c:	63 c0       	rjmp	.+198    	; 0x124 <__bad_interrupt>
      5e:	00 00       	nop
      60:	61 c0       	rjmp	.+194    	; 0x124 <__bad_interrupt>
      62:	00 00       	nop
      64:	5f c0       	rjmp	.+190    	; 0x124 <__bad_interrupt>
      66:	00 00       	nop
      68:	5d c0       	rjmp	.+186    	; 0x124 <__bad_interrupt>
      6a:	00 00       	nop
      6c:	5b c0       	rjmp	.+182    	; 0x124 <__bad_interrupt>
      6e:	00 00       	nop
      70:	59 c0       	rjmp	.+178    	; 0x124 <__bad_interrupt>
      72:	00 00       	nop
      74:	57 c0       	rjmp	.+174    	; 0x124 <__bad_interrupt>
      76:	00 00       	nop
      78:	55 c0       	rjmp	.+170    	; 0x124 <__bad_interrupt>
      7a:	00 00       	nop
      7c:	53 c0       	rjmp	.+166    	; 0x124 <__bad_interrupt>
      7e:	00 00       	nop
      80:	51 c0       	rjmp	.+162    	; 0x124 <__bad_interrupt>
      82:	00 00       	nop
      84:	4f c0       	rjmp	.+158    	; 0x124 <__bad_interrupt>
      86:	00 00       	nop
      88:	4d c0       	rjmp	.+154    	; 0x124 <__bad_interrupt>
      8a:	00 00       	nop
      8c:	4b c0       	rjmp	.+150    	; 0x124 <__bad_interrupt>
      8e:	00 00       	nop
      90:	49 c0       	rjmp	.+146    	; 0x124 <__bad_interrupt>
      92:	00 00       	nop
      94:	47 c0       	rjmp	.+142    	; 0x124 <__bad_interrupt>
      96:	00 00       	nop
      98:	45 c0       	rjmp	.+138    	; 0x124 <__bad_interrupt>
      9a:	00 00       	nop
      9c:	43 c0       	rjmp	.+134    	; 0x124 <__bad_interrupt>
      9e:	00 00       	nop
      a0:	41 c0       	rjmp	.+130    	; 0x124 <__bad_interrupt>
      a2:	00 00       	nop
      a4:	3f c0       	rjmp	.+126    	; 0x124 <__bad_interrupt>
      a6:	00 00       	nop
      a8:	ee c1       	rjmp	.+988    	; 0x486 <__vector_42>
      aa:	00 00       	nop
      ac:	3b c0       	rjmp	.+118    	; 0x124 <__bad_interrupt>
      ae:	00 00       	nop
      b0:	39 c0       	rjmp	.+114    	; 0x124 <__bad_interrupt>
      b2:	00 00       	nop
      b4:	37 c0       	rjmp	.+110    	; 0x124 <__bad_interrupt>
      b6:	00 00       	nop
      b8:	35 c0       	rjmp	.+106    	; 0x124 <__bad_interrupt>
      ba:	00 00       	nop
      bc:	33 c0       	rjmp	.+102    	; 0x124 <__bad_interrupt>
      be:	00 00       	nop
      c0:	31 c0       	rjmp	.+98     	; 0x124 <__bad_interrupt>
      c2:	00 00       	nop
      c4:	2f c0       	rjmp	.+94     	; 0x124 <__bad_interrupt>
      c6:	00 00       	nop
      c8:	2d c0       	rjmp	.+90     	; 0x124 <__bad_interrupt>
      ca:	00 00       	nop
      cc:	2b c0       	rjmp	.+86     	; 0x124 <__bad_interrupt>
      ce:	00 00       	nop
      d0:	29 c0       	rjmp	.+82     	; 0x124 <__bad_interrupt>
      d2:	00 00       	nop
      d4:	27 c0       	rjmp	.+78     	; 0x124 <__bad_interrupt>
      d6:	00 00       	nop
      d8:	25 c0       	rjmp	.+74     	; 0x124 <__bad_interrupt>
      da:	00 00       	nop
      dc:	23 c0       	rjmp	.+70     	; 0x124 <__bad_interrupt>
      de:	00 00       	nop
      e0:	21 c0       	rjmp	.+66     	; 0x124 <__bad_interrupt>
	...

000000e4 <__ctors_end>:
      e4:	11 24       	eor	r1, r1
      e6:	1f be       	out	0x3f, r1	; 63
      e8:	cf ef       	ldi	r28, 0xFF	; 255
      ea:	d1 e2       	ldi	r29, 0x21	; 33
      ec:	de bf       	out	0x3e, r29	; 62
      ee:	cd bf       	out	0x3d, r28	; 61
      f0:	00 e0       	ldi	r16, 0x00	; 0
      f2:	0c bf       	out	0x3c, r16	; 60

000000f4 <__do_copy_data>:
      f4:	14 e0       	ldi	r17, 0x04	; 4
      f6:	a0 e0       	ldi	r26, 0x00	; 0
      f8:	b2 e0       	ldi	r27, 0x02	; 2
      fa:	ee e3       	ldi	r30, 0x3E	; 62
      fc:	f5 e1       	ldi	r31, 0x15	; 21
      fe:	00 e0       	ldi	r16, 0x00	; 0
     100:	0b bf       	out	0x3b, r16	; 59
     102:	02 c0       	rjmp	.+4      	; 0x108 <__do_copy_data+0x14>
     104:	07 90       	elpm	r0, Z+
     106:	0d 92       	st	X+, r0
     108:	a6 3a       	cpi	r26, 0xA6	; 166
     10a:	b1 07       	cpc	r27, r17
     10c:	d9 f7       	brne	.-10     	; 0x104 <__do_copy_data+0x10>

0000010e <__do_clear_bss>:
     10e:	24 e0       	ldi	r18, 0x04	; 4
     110:	a6 ea       	ldi	r26, 0xA6	; 166
     112:	b4 e0       	ldi	r27, 0x04	; 4
     114:	01 c0       	rjmp	.+2      	; 0x118 <.do_clear_bss_start>

00000116 <.do_clear_bss_loop>:
     116:	1d 92       	st	X+, r1

00000118 <.do_clear_bss_start>:
     118:	a9 3a       	cpi	r26, 0xA9	; 169
     11a:	b2 07       	cpc	r27, r18
     11c:	e1 f7       	brne	.-8      	; 0x116 <.do_clear_bss_loop>
     11e:	cd d1       	rcall	.+922    	; 0x4ba <main>
     120:	0c 94 9d 0a 	jmp	0x153a	; 0x153a <_exit>

00000124 <__bad_interrupt>:
     124:	6d cf       	rjmp	.-294    	; 0x0 <__vectors>

00000126 <_ZN20HumiditySensorDriver9readValueEv>:
: sensor_(0x61)
{
} //HumiditySensorDriver

double HumiditySensorDriver::readValue()
{
     126:	cf 93       	push	r28
     128:	df 93       	push	r29
	sensor_.measure();
     12a:	ec 01       	movw	r28, r24
     12c:	2a 96       	adiw	r28, 0x0a	; 10
     12e:	ce 01       	movw	r24, r28
     130:	47 d3       	rcall	.+1678   	; 0x7c0 <_ZN5SDC307measureEv>
	return sensor_.getHumidity();
     132:	ce 01       	movw	r24, r28
     134:	3f d3       	rcall	.+1662   	; 0x7b4 <_ZN5SDC3011getHumidityEv>
     136:	df 91       	pop	r29
     138:	cf 91       	pop	r28
     13a:	08 95       	ret

0000013c <_ZN20HumiditySensorDriverC1Ev>:
*/
#include "HumiditySensorDriver.h"

// default constructor
HumiditySensorDriver::HumiditySensorDriver()
: sensor_(0x61)
     13c:	27 ed       	ldi	r18, 0xD7	; 215
     13e:	33 e0       	ldi	r19, 0x03	; 3
     140:	fc 01       	movw	r30, r24
     142:	31 83       	std	Z+1, r19	; 0x01
     144:	20 83       	st	Z, r18
     146:	61 e6       	ldi	r22, 0x61	; 97
     148:	0a 96       	adiw	r24, 0x0a	; 10
     14a:	da c2       	rjmp	.+1460   	; 0x700 <_ZN5SDC30C1Eh>
     14c:	08 95       	ret

0000014e <_ZN10ControllerC1Ev>:
* Author: madse
*/
#include "controller.h"

// default constructor
Controller::Controller()
     14e:	cf 93       	push	r28
     150:	df 93       	push	r29
     152:	ec 01       	movw	r28, r24
: uartDriver_(), x10Driver_()
     154:	dc d3       	rcall	.+1976   	; 0x90e <_ZN4UARTC1Ev>
     156:	ce 01       	movw	r24, r28
     158:	01 96       	adiw	r24, 0x01	; 1
     15a:	02 d4       	rcall	.+2052   	; 0x960 <_ZN9X10SenderC1Ev>
{
	windowsInSystem_ = 0;
     15c:	c3 5a       	subi	r28, 0xA3	; 163
     15e:	df 4f       	sbci	r29, 0xFF	; 255
     160:	18 82       	st	Y, r1
}
     162:	df 91       	pop	r29
     164:	cf 91       	pop	r28
     166:	08 95       	ret

00000168 <_ZN10Controller8setDebugE10debugTypes>:
	}
}

void Controller::setDebug(debugTypes debug)
{
	debugMode_ = debug;
     168:	82 5a       	subi	r24, 0xA2	; 162
     16a:	9f 4f       	sbci	r25, 0xFF	; 255
     16c:	fc 01       	movw	r30, r24
     16e:	60 83       	st	Z, r22
     170:	08 95       	ret

00000172 <_ZN10Controller9debugModeEv>:
}

debugTypes Controller::debugMode()
{
	return debugMode_;
     172:	82 5a       	subi	r24, 0xA2	; 162
     174:	9f 4f       	sbci	r25, 0xFF	; 255
}
     176:	fc 01       	movw	r30, r24
     178:	80 81       	ld	r24, Z
     17a:	08 95       	ret

0000017c <_ZN10Controller5startE10debugTypes>:
{
	windowsInSystem_ = 0;
}

void Controller::start(debugTypes debug = AUTO) // default debugmode er AUTO
{
     17c:	cf 93       	push	r28
     17e:	df 93       	push	r29
     180:	ec 01       	movw	r28, r24
	cli();
     182:	f8 94       	cli
	// tænder interrupts.
	EICRB |= (1 << ISC41) | (1 << ISC40); // INT4 skal trigger ved stigende kant.
     184:	ea e6       	ldi	r30, 0x6A	; 106
     186:	f0 e0       	ldi	r31, 0x00	; 0
     188:	80 81       	ld	r24, Z
     18a:	83 60       	ori	r24, 0x03	; 3
     18c:	80 83       	st	Z, r24
	EIMSK |= (1 << INT4);                 // Tænd INT4
     18e:	8d b3       	in	r24, 0x1d	; 29
     190:	80 61       	ori	r24, 0x10	; 16
     192:	8d bb       	out	0x1d, r24	; 29
	
	// Bruger timer4 med
	// prescaler 1024
	// CTC mode.
	// til at aktivere en interrupt hvert minut til aflæsening af 
	TCCR4A = 0;
     194:	10 92 a0 00 	sts	0x00A0, r1	; 0x8000a0 <__TEXT_REGION_LENGTH__+0x7c00a0>
	TCCR4B = 0;
     198:	e1 ea       	ldi	r30, 0xA1	; 161
     19a:	f0 e0       	ldi	r31, 0x00	; 0
     19c:	10 82       	st	Z, r1
	TCCR4B |= (1 << WGM42) | (1 << CS42) | (1 << CS40); // CTC mode, Prescaler 1024
     19e:	80 81       	ld	r24, Z
     1a0:	8d 60       	ori	r24, 0x0D	; 13
     1a2:	80 83       	st	Z, r24
	
	TCNT4 = 0;
     1a4:	10 92 a5 00 	sts	0x00A5, r1	; 0x8000a5 <__TEXT_REGION_LENGTH__+0x7c00a5>
     1a8:	10 92 a4 00 	sts	0x00A4, r1	; 0x8000a4 <__TEXT_REGION_LENGTH__+0x7c00a4>
	
	// Set compare match register for 1hz increments
	OCR4A = 15624; // = 16000000 / (1024 * 1) - 1 (must be <65536)
     1ac:	88 e0       	ldi	r24, 0x08	; 8
     1ae:	9d e3       	ldi	r25, 0x3D	; 61
     1b0:	90 93 a9 00 	sts	0x00A9, r25	; 0x8000a9 <__TEXT_REGION_LENGTH__+0x7c00a9>
     1b4:	80 93 a8 00 	sts	0x00A8, r24	; 0x8000a8 <__TEXT_REGION_LENGTH__+0x7c00a8>
	
	// Enable Timer4 compare interrupt
	TIMSK4 |= (1 << OCIE4A);
     1b8:	e2 e7       	ldi	r30, 0x72	; 114
     1ba:	f0 e0       	ldi	r31, 0x00	; 0
     1bc:	80 81       	ld	r24, Z
     1be:	82 60       	ori	r24, 0x02	; 2
     1c0:	80 83       	st	Z, r24
	
	// Global tænd for interrupts.
	sei();
     1c2:	78 94       	sei
	
	// Tænder output PB5. Dette er vores data strøm til x.10 protokollen.
	DDRB |= (1 << PB5);
     1c4:	84 b1       	in	r24, 0x04	; 4
     1c6:	80 62       	ori	r24, 0x20	; 32
     1c8:	84 b9       	out	0x04, r24	; 4
	
	
	this->setDebug(debug);
     1ca:	ce 01       	movw	r24, r28
     1cc:	cd df       	rcall	.-102    	; 0x168 <_ZN10Controller8setDebugE10debugTypes>
	uartDriver_.transmitString("Skift debugmode med enten\r\n1 - AUTO\r\n2 - WATCH\r\n3 - COMMAND\r\n");
     1ce:	69 ed       	ldi	r22, 0xD9	; 217
     1d0:	73 e0       	ldi	r23, 0x03	; 3
     1d2:	ce 01       	movw	r24, r28
     1d4:	ac d3       	rcall	.+1880   	; 0x92e <_ZN4UART14transmitStringEPKc>
	
	if (this->debugMode() == COMMAND)
     1d6:	ce 01       	movw	r24, r28
     1d8:	cc df       	rcall	.-104    	; 0x172 <_ZN10Controller9debugModeEv>
     1da:	81 11       	cpse	r24, r1
     1dc:	14 c0       	rjmp	.+40     	; 0x206 <_ZN10Controller5startE10debugTypes+0x8a>
     1de:	67 e1       	ldi	r22, 0x17	; 23
	{
		uartDriver_.transmitString("Menu:\r\n");
     1e0:	74 e0       	ldi	r23, 0x04	; 4
     1e2:	ce 01       	movw	r24, r28
     1e4:	a4 d3       	rcall	.+1864   	; 0x92e <_ZN4UART14transmitStringEPKc>
     1e6:	6f e1       	ldi	r22, 0x1F	; 31
		uartDriver_.transmitString("o - Aaben vindue\r\n");
     1e8:	74 e0       	ldi	r23, 0x04	; 4
     1ea:	ce 01       	movw	r24, r28
     1ec:	a0 d3       	rcall	.+1856   	; 0x92e <_ZN4UART14transmitStringEPKc>
     1ee:	62 e3       	ldi	r22, 0x32	; 50
		uartDriver_.transmitString("c - Luk vindue\r\n");
     1f0:	74 e0       	ldi	r23, 0x04	; 4
     1f2:	ce 01       	movw	r24, r28
     1f4:	9c d3       	rcall	.+1848   	; 0x92e <_ZN4UART14transmitStringEPKc>
     1f6:	63 e4       	ldi	r22, 0x43	; 67
		uartDriver_.transmitString("h - Halvt aabent\r\n");
     1f8:	74 e0       	ldi	r23, 0x04	; 4
     1fa:	ce 01       	movw	r24, r28
     1fc:	98 d3       	rcall	.+1840   	; 0x92e <_ZN4UART14transmitStringEPKc>
     1fe:	66 e5       	ldi	r22, 0x56	; 86
		uartDriver_.transmitString("m - Denne menu\r\n");
     200:	74 e0       	ldi	r23, 0x04	; 4
     202:	ce 01       	movw	r24, r28
     204:	94 d3       	rcall	.+1832   	; 0x92e <_ZN4UART14transmitStringEPKc>
     206:	df 91       	pop	r29
     208:	cf 91       	pop	r28
	}
}
     20a:	08 95       	ret

0000020c <_ZN10Controller9interruptEv>:
     20c:	ff 92       	push	r15
     20e:	0f 93       	push	r16

void Controller::interrupt()
{
     210:	1f 93       	push	r17
     212:	cf 93       	push	r28
     214:	df 93       	push	r29
     216:	ec 01       	movw	r28, r24
	uint8_t nextBit = x10Driver_.getNextBit();
     218:	8c 01       	movw	r16, r24
     21a:	0f 5f       	subi	r16, 0xFF	; 255
     21c:	1f 4f       	sbci	r17, 0xFF	; 255
     21e:	c8 01       	movw	r24, r16
     220:	ba d3       	rcall	.+1908   	; 0x996 <_ZN9X10Sender10getNextBitEv>
     222:	f8 2e       	mov	r15, r24
	x10Driver_.transmit(nextBit);
     224:	68 2f       	mov	r22, r24
     226:	c8 01       	movw	r24, r16
     228:	d7 d3       	rcall	.+1966   	; 0x9d8 <_ZN9X10Sender8transmitEh>
	
	// Hvis debugmode er AUTO, så skal vi returnere.
	if (this->debugMode() == AUTO) { return; }
     22a:	ce 01       	movw	r24, r28
     22c:	a2 df       	rcall	.-188    	; 0x172 <_ZN10Controller9debugModeEv>
     22e:	82 30       	cpi	r24, 0x02	; 2
     230:	61 f0       	breq	.+24     	; 0x24a <_ZN10Controller9interruptEv+0x3e>
     232:	81 e0       	ldi	r24, 0x01	; 1
	
	// ellers skriver vi til output hvad der er sendt.
	if (nextBit == 1) {
     234:	f8 12       	cpse	r15, r24
     236:	05 c0       	rjmp	.+10     	; 0x242 <_ZN10Controller9interruptEv+0x36>
     238:	67 e6       	ldi	r22, 0x67	; 103
		uartDriver_.transmitString(" 1 ");
     23a:	74 e0       	ldi	r23, 0x04	; 4
     23c:	ce 01       	movw	r24, r28
     23e:	77 d3       	rcall	.+1774   	; 0x92e <_ZN4UART14transmitStringEPKc>
     240:	04 c0       	rjmp	.+8      	; 0x24a <_ZN10Controller9interruptEv+0x3e>
     242:	6b e6       	ldi	r22, 0x6B	; 107
		} else {
		uartDriver_.transmitString(" 0 ");
     244:	74 e0       	ldi	r23, 0x04	; 4
     246:	ce 01       	movw	r24, r28
     248:	72 d3       	rcall	.+1764   	; 0x92e <_ZN4UART14transmitStringEPKc>
     24a:	df 91       	pop	r29
     24c:	cf 91       	pop	r28
	}
}
     24e:	1f 91       	pop	r17
     250:	0f 91       	pop	r16
     252:	ff 90       	pop	r15
     254:	08 95       	ret

00000256 <_ZN10Controller9addWindowEPh>:
     256:	cf 93       	push	r28
     258:	df 93       	push	r29
	}
}


void Controller::addWindow(uint8_t address[4])
{
     25a:	fc 01       	movw	r30, r24
     25c:	db 01       	movw	r26, r22
	if (windowsInSystem_ < MAX_RECIEVERS) {
     25e:	ec 01       	movw	r28, r24
     260:	c3 5a       	subi	r28, 0xA3	; 163
     262:	df 4f       	sbci	r29, 0xFF	; 255
     264:	88 81       	ld	r24, Y
     266:	8a 30       	cpi	r24, 0x0A	; 10
     268:	d8 f4       	brcc	.+54     	; 0x2a0 <_ZN10Controller9addWindowEPh+0x4a>
     26a:	90 e0       	ldi	r25, 0x00	; 0
		for (uint8_t i = 0; i < 4; i++)
     26c:	94 30       	cpi	r25, 0x04	; 4
     26e:	a0 f4       	brcc	.+40     	; 0x298 <_ZN10Controller9addWindowEPh+0x42>
		{
			windows_[windowsInSystem_].address[i] = address[i];
     270:	28 2f       	mov	r18, r24
     272:	30 e0       	ldi	r19, 0x00	; 0
     274:	49 2f       	mov	r20, r25
     276:	50 e0       	ldi	r21, 0x00	; 0
     278:	ed 01       	movw	r28, r26
     27a:	c4 0f       	add	r28, r20
     27c:	d5 1f       	adc	r29, r21
     27e:	78 81       	ld	r23, Y
     280:	22 0f       	add	r18, r18
     282:	33 1f       	adc	r19, r19
     284:	22 0f       	add	r18, r18
     286:	33 1f       	adc	r19, r19
     288:	2e 0f       	add	r18, r30
     28a:	3f 1f       	adc	r19, r31
     28c:	e9 01       	movw	r28, r18
     28e:	c4 0f       	add	r28, r20
     290:	d5 1f       	adc	r29, r21
     292:	7d ab       	std	Y+53, r23	; 0x35


void Controller::addWindow(uint8_t address[4])
{
	if (windowsInSystem_ < MAX_RECIEVERS) {
		for (uint8_t i = 0; i < 4; i++)
     294:	9f 5f       	subi	r25, 0xFF	; 255
     296:	ea cf       	rjmp	.-44     	; 0x26c <_ZN10Controller9addWindowEPh+0x16>
		{
			windows_[windowsInSystem_].address[i] = address[i];
		}
		
		windowsInSystem_++;
     298:	e3 5a       	subi	r30, 0xA3	; 163
     29a:	ff 4f       	sbci	r31, 0xFF	; 255
     29c:	8f 5f       	subi	r24, 0xFF	; 255
     29e:	80 83       	st	Z, r24
	}
}
     2a0:	df 91       	pop	r29
     2a2:	cf 91       	pop	r28
     2a4:	08 95       	ret

000002a6 <_ZN10Controller23sendCommandToAllWindowsEc>:

void Controller::sendCommandToAllWindows(char command)
{
     2a6:	1f 93       	push	r17
     2a8:	cf 93       	push	r28
     2aa:	df 93       	push	r29
     2ac:	ec 01       	movw	r28, r24
     2ae:	16 2f       	mov	r17, r22
	if (debugMode_ != AUTO) { 
     2b0:	fc 01       	movw	r30, r24
     2b2:	e2 5a       	subi	r30, 0xA2	; 162
     2b4:	ff 4f       	sbci	r31, 0xFF	; 255
     2b6:	80 81       	ld	r24, Z
     2b8:	82 30       	cpi	r24, 0x02	; 2
     2ba:	59 f0       	breq	.+22     	; 0x2d2 <_ZN10Controller23sendCommandToAllWindowsEc+0x2c>
		uartDriver_.transmitString("\r\nSENDER ");
     2bc:	6f e6       	ldi	r22, 0x6F	; 111
     2be:	74 e0       	ldi	r23, 0x04	; 4
     2c0:	ce 01       	movw	r24, r28
     2c2:	35 d3       	rcall	.+1642   	; 0x92e <_ZN4UART14transmitStringEPKc>
		uartDriver_.transmit(command);
     2c4:	61 2f       	mov	r22, r17
     2c6:	ce 01       	movw	r24, r28
     2c8:	2b d3       	rcall	.+1622   	; 0x920 <_ZN4UART8transmitEh>
		uartDriver_.transmitString("\r\n");
     2ca:	6c e1       	ldi	r22, 0x1C	; 28
     2cc:	74 e0       	ldi	r23, 0x04	; 4
     2ce:	ce 01       	movw	r24, r28
     2d0:	2e d3       	rcall	.+1628   	; 0x92e <_ZN4UART14transmitStringEPKc>
	}
	
	x10Driver_.sendData(command, windows_[0].address);
     2d2:	ae 01       	movw	r20, r28
     2d4:	4b 5c       	subi	r20, 0xCB	; 203
     2d6:	5f 4f       	sbci	r21, 0xFF	; 255
     2d8:	61 2f       	mov	r22, r17
     2da:	ce 01       	movw	r24, r28
     2dc:	01 96       	adiw	r24, 0x01	; 1
     2de:	f0 d3       	rcall	.+2016   	; 0xac0 <_ZN9X10Sender8sendDataEcPh>
	{
		x10Driver_.sendData(command, windows_[i].address);
	}*/
	
	
}
     2e0:	df 91       	pop	r29
     2e2:	cf 91       	pop	r28
     2e4:	1f 91       	pop	r17
     2e6:	08 95       	ret

000002e8 <_ZN10Controller9debugMenuEv>:
{
	return debugMode_;
}

void Controller::debugMenu()
{
     2e8:	cf 93       	push	r28
     2ea:	df 93       	push	r29
     2ec:	ec 01       	movw	r28, r24
	// Hvis debugmode ikke er commands, så skal vi returnere.
	if (this->debugMode() != COMMAND) return;
     2ee:	41 df       	rcall	.-382    	; 0x172 <_ZN10Controller9debugModeEv>
     2f0:	81 11       	cpse	r24, r1
     2f2:	35 c0       	rjmp	.+106    	; 0x35e <_ZN10Controller9debugMenuEv+0x76>
	
	if (!x10Driver_.dataReady()) {
     2f4:	ce 01       	movw	r24, r28
     2f6:	01 96       	adiw	r24, 0x01	; 1
     2f8:	4b d3       	rcall	.+1686   	; 0x990 <_ZN9X10Sender9dataReadyEv>
     2fa:	81 11       	cpse	r24, r1
     2fc:	30 c0       	rjmp	.+96     	; 0x35e <_ZN10Controller9debugMenuEv+0x76>
		uartDriver_.transmitString("\r\n\nKlar til næste kommando");
     2fe:	69 e7       	ldi	r22, 0x79	; 121
     300:	74 e0       	ldi	r23, 0x04	; 4
     302:	ce 01       	movw	r24, r28
		switch (uartDriver_.recieve())
     304:	14 d3       	rcall	.+1576   	; 0x92e <_ZN4UART14transmitStringEPKc>
     306:	ce 01       	movw	r24, r28
     308:	24 d3       	rcall	.+1608   	; 0x952 <_ZN4UART7recieveEv>
     30a:	88 36       	cpi	r24, 0x68	; 104
     30c:	81 f0       	breq	.+32     	; 0x32e <_ZN10Controller9debugMenuEv+0x46>
     30e:	18 f4       	brcc	.+6      	; 0x316 <_ZN10Controller9debugMenuEv+0x2e>
     310:	83 36       	cpi	r24, 0x63	; 99
     312:	49 f0       	breq	.+18     	; 0x326 <_ZN10Controller9debugMenuEv+0x3e>
     314:	24 c0       	rjmp	.+72     	; 0x35e <_ZN10Controller9debugMenuEv+0x76>
     316:	8d 36       	cpi	r24, 0x6D	; 109
     318:	71 f0       	breq	.+28     	; 0x336 <_ZN10Controller9debugMenuEv+0x4e>
     31a:	8f 36       	cpi	r24, 0x6F	; 111
		{
			case 'o':
			{
				this->sendCommandToAllWindows('O');
     31c:	01 f5       	brne	.+64     	; 0x35e <_ZN10Controller9debugMenuEv+0x76>
     31e:	6f e4       	ldi	r22, 0x4F	; 79
     320:	ce 01       	movw	r24, r28
			}
			break;
     322:	c1 df       	rcall	.-126    	; 0x2a6 <_ZN10Controller23sendCommandToAllWindowsEc>
			case 'c':
			{
				this->sendCommandToAllWindows('C');
     324:	1c c0       	rjmp	.+56     	; 0x35e <_ZN10Controller9debugMenuEv+0x76>
     326:	63 e4       	ldi	r22, 0x43	; 67
     328:	ce 01       	movw	r24, r28
			}
			break;
     32a:	bd df       	rcall	.-134    	; 0x2a6 <_ZN10Controller23sendCommandToAllWindowsEc>
			case 'h':
			{
				this->sendCommandToAllWindows('H');
     32c:	18 c0       	rjmp	.+48     	; 0x35e <_ZN10Controller9debugMenuEv+0x76>
     32e:	68 e4       	ldi	r22, 0x48	; 72
     330:	ce 01       	movw	r24, r28
			}
			break;
     332:	b9 df       	rcall	.-142    	; 0x2a6 <_ZN10Controller23sendCommandToAllWindowsEc>
			case 'm':
			{
				uartDriver_.transmitString("Menu:\r\n");
     334:	14 c0       	rjmp	.+40     	; 0x35e <_ZN10Controller9debugMenuEv+0x76>
     336:	67 e1       	ldi	r22, 0x17	; 23
     338:	74 e0       	ldi	r23, 0x04	; 4
     33a:	ce 01       	movw	r24, r28
				uartDriver_.transmitString("o - Aaben vindue\r\n");
     33c:	f8 d2       	rcall	.+1520   	; 0x92e <_ZN4UART14transmitStringEPKc>
     33e:	6f e1       	ldi	r22, 0x1F	; 31
     340:	74 e0       	ldi	r23, 0x04	; 4
     342:	ce 01       	movw	r24, r28
				uartDriver_.transmitString("c - Luk vindue\r\n");
     344:	f4 d2       	rcall	.+1512   	; 0x92e <_ZN4UART14transmitStringEPKc>
     346:	62 e3       	ldi	r22, 0x32	; 50
     348:	74 e0       	ldi	r23, 0x04	; 4
     34a:	ce 01       	movw	r24, r28
				uartDriver_.transmitString("h - Halvt aabent\r\n");
     34c:	f0 d2       	rcall	.+1504   	; 0x92e <_ZN4UART14transmitStringEPKc>
     34e:	63 e4       	ldi	r22, 0x43	; 67
     350:	74 e0       	ldi	r23, 0x04	; 4
     352:	ce 01       	movw	r24, r28
     354:	ec d2       	rcall	.+1496   	; 0x92e <_ZN4UART14transmitStringEPKc>
				uartDriver_.transmitString("m - Denne menu\r\n");
     356:	66 e5       	ldi	r22, 0x56	; 86
     358:	74 e0       	ldi	r23, 0x04	; 4
     35a:	ce 01       	movw	r24, r28
     35c:	e8 d2       	rcall	.+1488   	; 0x92e <_ZN4UART14transmitStringEPKc>
     35e:	df 91       	pop	r29
			}
			break;
		}
	}
}
     360:	cf 91       	pop	r28
     362:	08 95       	ret

00000364 <_ZN10Controller11windowsOpenEv>:
     364:	cf 93       	push	r28
	
	
}

void Controller::windowsOpen()
{
     366:	df 93       	push	r29
	if (windowState_ == 100) return;
     368:	fc 01       	movw	r30, r24
     36a:	24 a9       	ldd	r18, Z+52	; 0x34
     36c:	24 36       	cpi	r18, 0x64	; 100
     36e:	29 f0       	breq	.+10     	; 0x37a <_ZN10Controller11windowsOpenEv+0x16>
     370:	ec 01       	movw	r28, r24
	this->sendCommandToAllWindows('O');
     372:	6f e4       	ldi	r22, 0x4F	; 79
     374:	98 df       	rcall	.-208    	; 0x2a6 <_ZN10Controller23sendCommandToAllWindowsEc>
	windowState_ = 100;
     376:	84 e6       	ldi	r24, 0x64	; 100
     378:	8c ab       	std	Y+52, r24	; 0x34
}
     37a:	df 91       	pop	r29
     37c:	cf 91       	pop	r28
     37e:	08 95       	ret

00000380 <_ZN10Controller11windowsHalfEv>:

void Controller::windowsHalf()
{
     380:	cf 93       	push	r28
     382:	df 93       	push	r29
	if (windowState_ == 50) return;
     384:	fc 01       	movw	r30, r24
     386:	24 a9       	ldd	r18, Z+52	; 0x34
     388:	22 33       	cpi	r18, 0x32	; 50
     38a:	29 f0       	breq	.+10     	; 0x396 <_ZN10Controller11windowsHalfEv+0x16>
     38c:	ec 01       	movw	r28, r24
	this->sendCommandToAllWindows('H');
     38e:	68 e4       	ldi	r22, 0x48	; 72
     390:	8a df       	rcall	.-236    	; 0x2a6 <_ZN10Controller23sendCommandToAllWindowsEc>
	windowState_ = 50;
     392:	82 e3       	ldi	r24, 0x32	; 50
     394:	8c ab       	std	Y+52, r24	; 0x34
}
     396:	df 91       	pop	r29
     398:	cf 91       	pop	r28
     39a:	08 95       	ret

0000039c <_ZN10Controller13windowsClosedEv>:

void Controller::windowsClosed()
{
     39c:	cf 93       	push	r28
     39e:	df 93       	push	r29
	if (windowState_ == 0) return;
     3a0:	fc 01       	movw	r30, r24
     3a2:	24 a9       	ldd	r18, Z+52	; 0x34
     3a4:	22 23       	and	r18, r18
     3a6:	21 f0       	breq	.+8      	; 0x3b0 <_ZN10Controller13windowsClosedEv+0x14>
     3a8:	ec 01       	movw	r28, r24
	this->sendCommandToAllWindows('C');
     3aa:	63 e4       	ldi	r22, 0x43	; 67
     3ac:	7c df       	rcall	.-264    	; 0x2a6 <_ZN10Controller23sendCommandToAllWindowsEc>
	windowState_ = 0;
     3ae:	1c aa       	std	Y+52, r1	; 0x34
}
     3b0:	df 91       	pop	r29
     3b2:	cf 91       	pop	r28
     3b4:	08 95       	ret

000003b6 <_ZN10Controller10printValueIdEEvT_>:
	uartDriver_.transmitString(buffer);
}*/

// Specialization for double
template <>
void Controller::printValue<double>(double value) {
     3b6:	4f 92       	push	r4
     3b8:	5f 92       	push	r5
     3ba:	6f 92       	push	r6
     3bc:	7f 92       	push	r7
     3be:	af 92       	push	r10
     3c0:	bf 92       	push	r11
     3c2:	cf 92       	push	r12
     3c4:	df 92       	push	r13
     3c6:	ef 92       	push	r14
     3c8:	ff 92       	push	r15
     3ca:	0f 93       	push	r16
     3cc:	1f 93       	push	r17
     3ce:	cf 93       	push	r28
     3d0:	df 93       	push	r29
     3d2:	cd b7       	in	r28, 0x3d	; 61
     3d4:	de b7       	in	r29, 0x3e	; 62
     3d6:	e2 97       	sbiw	r28, 0x32	; 50
     3d8:	0f b6       	in	r0, 0x3f	; 63
     3da:	f8 94       	cli
     3dc:	de bf       	out	0x3e, r29	; 62
     3de:	0f be       	out	0x3f, r0	; 63
     3e0:	cd bf       	out	0x3d, r28	; 61
     3e2:	5c 01       	movw	r10, r24
     3e4:	2a 01       	movw	r4, r20
     3e6:	3b 01       	movw	r6, r22
	// if (x10Driver_.dataReady()) {return;} // Hvis der sendes data, vil vi ikke forstyrre.
	char buffer[50];
	int integerPart = (int)value;
     3e8:	cb 01       	movw	r24, r22
     3ea:	ba 01       	movw	r22, r20
     3ec:	81 d4       	rcall	.+2306   	; 0xcf0 <__fixsfsi>
     3ee:	6b 01       	movw	r12, r22
     3f0:	7c 01       	movw	r14, r24
	int decimalPart = (int)((value - integerPart) * 100);
     3f2:	07 2e       	mov	r0, r23
     3f4:	00 0c       	add	r0, r0
     3f6:	88 0b       	sbc	r24, r24
     3f8:	99 0b       	sbc	r25, r25
     3fa:	ad d4       	rcall	.+2394   	; 0xd56 <__floatsisf>
     3fc:	9b 01       	movw	r18, r22
     3fe:	ac 01       	movw	r20, r24
     400:	c3 01       	movw	r24, r6
     402:	b2 01       	movw	r22, r4
     404:	a4 d3       	rcall	.+1864   	; 0xb4e <__subsf3>
     406:	20 e0       	ldi	r18, 0x00	; 0
     408:	30 e0       	ldi	r19, 0x00	; 0
     40a:	48 ec       	ldi	r20, 0xC8	; 200
     40c:	52 e4       	ldi	r21, 0x42	; 66
     40e:	57 d5       	rcall	.+2734   	; 0xebe <__mulsf3>
     410:	6f d4       	rcall	.+2270   	; 0xcf0 <__fixsfsi>
	
	sprintf(buffer, "\r\nDouble: %d.%02d", integerPart, decimalPart);
     412:	7f 93       	push	r23
     414:	6f 93       	push	r22
     416:	df 92       	push	r13
     418:	cf 92       	push	r12
     41a:	84 e9       	ldi	r24, 0x94	; 148
     41c:	94 e0       	ldi	r25, 0x04	; 4
     41e:	9f 93       	push	r25
     420:	8f 93       	push	r24
     422:	8e 01       	movw	r16, r28
     424:	0f 5f       	subi	r16, 0xFF	; 255
     426:	1f 4f       	sbci	r17, 0xFF	; 255
     428:	1f 93       	push	r17
     42a:	0f 93       	push	r16
	uartDriver_.transmitString(buffer);
     42c:	ab d5       	rcall	.+2902   	; 0xf84 <sprintf>
     42e:	b8 01       	movw	r22, r16
     430:	c5 01       	movw	r24, r10
     432:	7d d2       	rcall	.+1274   	; 0x92e <_ZN4UART14transmitStringEPKc>
}
     434:	0f b6       	in	r0, 0x3f	; 63
     436:	f8 94       	cli
     438:	de bf       	out	0x3e, r29	; 62
     43a:	0f be       	out	0x3f, r0	; 63
     43c:	cd bf       	out	0x3d, r28	; 61
     43e:	e2 96       	adiw	r28, 0x32	; 50
     440:	0f b6       	in	r0, 0x3f	; 63
     442:	f8 94       	cli
     444:	de bf       	out	0x3e, r29	; 62
     446:	0f be       	out	0x3f, r0	; 63
     448:	cd bf       	out	0x3d, r28	; 61
     44a:	df 91       	pop	r29
     44c:	cf 91       	pop	r28
     44e:	1f 91       	pop	r17
     450:	0f 91       	pop	r16
     452:	ff 90       	pop	r15
     454:	ef 90       	pop	r14
     456:	df 90       	pop	r13
     458:	cf 90       	pop	r12
     45a:	bf 90       	pop	r11
     45c:	af 90       	pop	r10
     45e:	7f 90       	pop	r7
     460:	6f 90       	pop	r6
     462:	5f 90       	pop	r5
     464:	4f 90       	pop	r4
     466:	08 95       	ret

00000468 <__vector_5>:
		}
		
	}
}

ISR(INT4_vect) {
     468:	1f 92       	push	r1
     46a:	0f 92       	push	r0
     46c:	0f b6       	in	r0, 0x3f	; 63
     46e:	0f 92       	push	r0
     470:	11 24       	eor	r1, r1
     472:	8f 93       	push	r24
	interruptFlag = 1;
     474:	81 e0       	ldi	r24, 0x01	; 1
     476:	80 93 a8 04 	sts	0x04A8, r24	; 0x8004a8 <interruptFlag>
}
     47a:	8f 91       	pop	r24
     47c:	0f 90       	pop	r0
     47e:	0f be       	out	0x3f, r0	; 63
     480:	0f 90       	pop	r0
     482:	1f 90       	pop	r1
     484:	18 95       	reti

00000486 <__vector_42>:

ISR(TIMER4_COMPA_vect) {
     486:	1f 92       	push	r1
     488:	0f 92       	push	r0
     48a:	0f b6       	in	r0, 0x3f	; 63
     48c:	0f 92       	push	r0
     48e:	11 24       	eor	r1, r1
     490:	8f 93       	push	r24
	// Da timer 4 er sat til at trigger for hvert sekund (1Hz), skal vi bruge en measureOverflow integer.
	measureOverflow++;
     492:	80 91 a6 04 	lds	r24, 0x04A6	; 0x8004a6 <__data_end>
     496:	8f 5f       	subi	r24, 0xFF	; 255
     498:	80 93 a6 04 	sts	0x04A6, r24	; 0x8004a6 <__data_end>
	
	// Hvis den er større end vores definerede konstant, skal vi sætte flag for at måle værdier.
	if (measureOverflow >= MEASURE_EVERY_SECONDS)
     49c:	80 91 a6 04 	lds	r24, 0x04A6	; 0x8004a6 <__data_end>
     4a0:	85 30       	cpi	r24, 0x05	; 5
     4a2:	28 f0       	brcs	.+10     	; 0x4ae <__vector_42+0x28>
	{
		measureFlag = 1;
     4a4:	81 e0       	ldi	r24, 0x01	; 1
     4a6:	80 93 a7 04 	sts	0x04A7, r24	; 0x8004a7 <measureFlag>
		measureOverflow = 0;
     4aa:	10 92 a6 04 	sts	0x04A6, r1	; 0x8004a6 <__data_end>
	}
}
     4ae:	8f 91       	pop	r24
     4b0:	0f 90       	pop	r0
     4b2:	0f be       	out	0x3f, r0	; 63
     4b4:	0f 90       	pop	r0
     4b6:	1f 90       	pop	r1
     4b8:	18 95       	reti

000004ba <main>:
volatile uint8_t interruptFlag = 0;
volatile uint8_t measureFlag = 0;
volatile uint8_t measureOverflow = 0; 

int main(void)
{
     4ba:	cf 93       	push	r28
     4bc:	df 93       	push	r29
     4be:	cd b7       	in	r28, 0x3d	; 61
     4c0:	de b7       	in	r29, 0x3e	; 62
     4c2:	c1 58       	subi	r28, 0x81	; 129
     4c4:	d1 09       	sbc	r29, r1
     4c6:	0f b6       	in	r0, 0x3f	; 63
     4c8:	f8 94       	cli
     4ca:	de bf       	out	0x3e, r29	; 62
     4cc:	0f be       	out	0x3f, r0	; 63
     4ce:	cd bf       	out	0x3d, r28	; 61
	// UART uart;
	
	Controller controller;
     4d0:	ce 01       	movw	r24, r28
     4d2:	01 96       	adiw	r24, 0x01	; 1
     4d4:	3c de       	rcall	.-904    	; 0x14e <_ZN10ControllerC1Ev>
	controller.start(DEBUG_MODE);
     4d6:	60 e0       	ldi	r22, 0x00	; 0
     4d8:	ce 01       	movw	r24, r28
     4da:	01 96       	adiw	r24, 0x01	; 1
     4dc:	4f de       	rcall	.-866    	; 0x17c <_ZN10Controller5startE10debugTypes>
	
	// Modtagerens adresse.
	uint8_t window1[4] = {0,0,0,1};
     4de:	a1 96       	adiw	r28, 0x21	; 33
     4e0:	1f ae       	std	Y+63, r1	; 0x3f
     4e2:	a1 97       	sbiw	r28, 0x21	; 33
     4e4:	a2 96       	adiw	r28, 0x22	; 34
     4e6:	1f ae       	std	Y+63, r1	; 0x3f
     4e8:	a2 97       	sbiw	r28, 0x22	; 34
     4ea:	a3 96       	adiw	r28, 0x23	; 35
     4ec:	1f ae       	std	Y+63, r1	; 0x3f
     4ee:	a3 97       	sbiw	r28, 0x23	; 35
     4f0:	81 e0       	ldi	r24, 0x01	; 1
     4f2:	a4 96       	adiw	r28, 0x24	; 36
     4f4:	8f af       	std	Y+63, r24	; 0x3f
     4f6:	a4 97       	sbiw	r28, 0x24	; 36
	controller.addWindow(window1);
     4f8:	be 01       	movw	r22, r28
     4fa:	60 5a       	subi	r22, 0xA0	; 160
     4fc:	7f 4f       	sbci	r23, 0xFF	; 255
     4fe:	ce 01       	movw	r24, r28
     500:	01 96       	adiw	r24, 0x01	; 1
     502:	a9 de       	rcall	.-686    	; 0x256 <_ZN10Controller9addWindowEPh>
	
	// Luftfugtighedssensor driver
	HumiditySensorDriver humiditySensor;
     504:	ce 01       	movw	r24, r28
     506:	8c 59       	subi	r24, 0x9C	; 156
     508:	9f 4f       	sbci	r25, 0xFF	; 255
     50a:	18 de       	rcall	.-976    	; 0x13c <_ZN20HumiditySensorDriverC1Ev>
class SensorDriverTemplate
{
public:
	SensorDriverTemplate() {};
	virtual T readValue() = 0;
	void setMaxValue(T value) { maxValue_ = value; };
     50c:	80 e0       	ldi	r24, 0x00	; 0
     50e:	90 e0       	ldi	r25, 0x00	; 0
     510:	a0 e7       	ldi	r26, 0x70	; 112
     512:	b2 e4       	ldi	r27, 0x42	; 66
     514:	aa 96       	adiw	r28, 0x2a	; 42
     516:	8c af       	std	Y+60, r24	; 0x3c
     518:	9d af       	std	Y+61, r25	; 0x3d
     51a:	ae af       	std	Y+62, r26	; 0x3e
     51c:	bf af       	std	Y+63, r27	; 0x3f
     51e:	aa 97       	sbiw	r28, 0x2a	; 42
	void setMinValue(T value) { minValue_ = value; };
     520:	80 e0       	ldi	r24, 0x00	; 0
     522:	90 e0       	ldi	r25, 0x00	; 0
     524:	a0 ef       	ldi	r26, 0xF0	; 240
     526:	b1 e4       	ldi	r27, 0x41	; 65
     528:	ae 96       	adiw	r28, 0x2e	; 46
     52a:	8c af       	std	Y+60, r24	; 0x3c
     52c:	9d af       	std	Y+61, r25	; 0x3d
     52e:	ae af       	std	Y+62, r26	; 0x3e
     530:	bf af       	std	Y+63, r27	; 0x3f
     532:	ae 97       	sbiw	r28, 0x2e	; 46
	
	// Starter uendelig løkke.
	while(true)
	{	
		// Hvis measureFlag er blevet sat, skal vi aflæse værdier fra sensoren.
		if (measureFlag == 1 && controller.debugMode() == WATCH) {
     534:	80 91 a7 04 	lds	r24, 0x04A7	; 0x8004a7 <measureFlag>
     538:	81 30       	cpi	r24, 0x01	; 1
     53a:	31 f4       	brne	.+12     	; 0x548 <main+0x8e>
     53c:	ce 01       	movw	r24, r28
     53e:	01 96       	adiw	r24, 0x01	; 1
     540:	18 de       	rcall	.-976    	; 0x172 <_ZN10Controller9debugModeEv>
     542:	81 30       	cpi	r24, 0x01	; 1
     544:	19 f4       	brne	.+6      	; 0x54c <main+0x92>
     546:	03 c0       	rjmp	.+6      	; 0x54e <main+0x94>
     548:	80 e0       	ldi	r24, 0x00	; 0
     54a:	01 c0       	rjmp	.+2      	; 0x54e <main+0x94>
     54c:	80 e0       	ldi	r24, 0x00	; 0
     54e:	88 23       	and	r24, r24
     550:	09 f4       	brne	.+2      	; 0x554 <main+0x9a>
			if (controller.debugMode() == WATCH) {
     552:	98 c0       	rjmp	.+304    	; 0x684 <main+0x1ca>
     554:	ce 01       	movw	r24, r28
     556:	01 96       	adiw	r24, 0x01	; 1
     558:	0c de       	rcall	.-1000   	; 0x172 <_ZN10Controller9debugModeEv>
     55a:	81 30       	cpi	r24, 0x01	; 1
				controller.printValue(humiditySensor.readValue());
     55c:	49 f4       	brne	.+18     	; 0x570 <main+0xb6>
     55e:	ce 01       	movw	r24, r28
     560:	8c 59       	subi	r24, 0x9C	; 156
     562:	9f 4f       	sbci	r25, 0xFF	; 255
     564:	e0 dd       	rcall	.-1088   	; 0x126 <_ZN20HumiditySensorDriver9readValueEv>
     566:	ab 01       	movw	r20, r22
     568:	bc 01       	movw	r22, r24
     56a:	ce 01       	movw	r24, r28
     56c:	01 96       	adiw	r24, 0x01	; 1
     56e:	23 df       	rcall	.-442    	; 0x3b6 <_ZN10Controller10printValueIdEEvT_>
	T getMaxValue() { return maxValue_; };
	T getMinValue() { return minValue_; };
	double outsideLimits() { // Hvor langt udenfor limits er vi? 
		T measurement = this->readValue(); // Måler værdi fra sensor
     570:	a6 96       	adiw	r28, 0x26	; 38
     572:	ee ad       	ldd	r30, Y+62	; 0x3e
     574:	ff ad       	ldd	r31, Y+63	; 0x3f
     576:	a6 97       	sbiw	r28, 0x26	; 38
     578:	01 90       	ld	r0, Z+
     57a:	f0 81       	ld	r31, Z
     57c:	e0 2d       	mov	r30, r0
     57e:	ce 01       	movw	r24, r28
     580:	8c 59       	subi	r24, 0x9C	; 156
     582:	9f 4f       	sbci	r25, 0xFF	; 255
     584:	19 95       	eicall
     586:	6b 01       	movw	r12, r22
     588:	7c 01       	movw	r14, r24
		T range = maxValue_ - minValue_; // Den range vores measurement skal være indenfor.
     58a:	aa 96       	adiw	r28, 0x2a	; 42
     58c:	8c ac       	ldd	r8, Y+60	; 0x3c
     58e:	9d ac       	ldd	r9, Y+61	; 0x3d
     590:	ae ac       	ldd	r10, Y+62	; 0x3e
     592:	bf ac       	ldd	r11, Y+63	; 0x3f
     594:	aa 97       	sbiw	r28, 0x2a	; 42
     596:	ae 96       	adiw	r28, 0x2e	; 46
     598:	4c ac       	ldd	r4, Y+60	; 0x3c
     59a:	5d ac       	ldd	r5, Y+61	; 0x3d
     59c:	6e ac       	ldd	r6, Y+62	; 0x3e
     59e:	7f ac       	ldd	r7, Y+63	; 0x3f
     5a0:	ae 97       	sbiw	r28, 0x2e	; 46
     5a2:	a3 01       	movw	r20, r6
     5a4:	92 01       	movw	r18, r4
     5a6:	c5 01       	movw	r24, r10
     5a8:	b4 01       	movw	r22, r8
     5aa:	d1 d2       	rcall	.+1442   	; 0xb4e <__subsf3>
     5ac:	c2 58       	subi	r28, 0x82	; 130
     5ae:	df 4f       	sbci	r29, 0xFF	; 255
     5b0:	68 83       	st	Y, r22
     5b2:	79 83       	std	Y+1, r23	; 0x01
     5b4:	8a 83       	std	Y+2, r24	; 0x02
     5b6:	9b 83       	std	Y+3, r25	; 0x03
     5b8:	ce 57       	subi	r28, 0x7E	; 126
		
		// Beregner procentdel afvigelse fra rangen.
		if (measurement < minValue_) {
     5ba:	d0 40       	sbci	r29, 0x00	; 0
     5bc:	a3 01       	movw	r20, r6
     5be:	92 01       	movw	r18, r4
     5c0:	c7 01       	movw	r24, r14
     5c2:	b6 01       	movw	r22, r12
     5c4:	29 d3       	rcall	.+1618   	; 0xc18 <__cmpsf2>
     5c6:	88 23       	and	r24, r24
			return (double)((minValue_ - measurement) / range) * 100;
     5c8:	b4 f4       	brge	.+44     	; 0x5f6 <main+0x13c>
     5ca:	a7 01       	movw	r20, r14
     5cc:	96 01       	movw	r18, r12
     5ce:	c3 01       	movw	r24, r6
     5d0:	b2 01       	movw	r22, r4
     5d2:	bd d2       	rcall	.+1402   	; 0xb4e <__subsf3>
     5d4:	c2 58       	subi	r28, 0x82	; 130
     5d6:	df 4f       	sbci	r29, 0xFF	; 255
     5d8:	28 81       	ld	r18, Y
     5da:	39 81       	ldd	r19, Y+1	; 0x01
     5dc:	4a 81       	ldd	r20, Y+2	; 0x02
     5de:	5b 81       	ldd	r21, Y+3	; 0x03
     5e0:	ce 57       	subi	r28, 0x7E	; 126
     5e2:	d0 40       	sbci	r29, 0x00	; 0
     5e4:	1d d3       	rcall	.+1594   	; 0xc20 <__divsf3>
     5e6:	20 e0       	ldi	r18, 0x00	; 0
     5e8:	30 e0       	ldi	r19, 0x00	; 0
     5ea:	48 ec       	ldi	r20, 0xC8	; 200
     5ec:	52 e4       	ldi	r21, 0x42	; 66
     5ee:	67 d4       	rcall	.+2254   	; 0xebe <__mulsf3>
     5f0:	6b 01       	movw	r12, r22
     5f2:	7c 01       	movw	r14, r24
		} else if (measurement > maxValue_) {
     5f4:	20 c0       	rjmp	.+64     	; 0x636 <main+0x17c>
     5f6:	a5 01       	movw	r20, r10
     5f8:	94 01       	movw	r18, r8
     5fa:	c7 01       	movw	r24, r14
     5fc:	b6 01       	movw	r22, r12
     5fe:	5b d4       	rcall	.+2230   	; 0xeb6 <__gesf2>
     600:	18 16       	cp	r1, r24
			return (double)((measurement - maxValue_) / range) * 100;
     602:	b4 f4       	brge	.+44     	; 0x630 <main+0x176>
     604:	a5 01       	movw	r20, r10
     606:	94 01       	movw	r18, r8
     608:	c7 01       	movw	r24, r14
     60a:	b6 01       	movw	r22, r12
     60c:	a0 d2       	rcall	.+1344   	; 0xb4e <__subsf3>
     60e:	c2 58       	subi	r28, 0x82	; 130
     610:	df 4f       	sbci	r29, 0xFF	; 255
     612:	28 81       	ld	r18, Y
     614:	39 81       	ldd	r19, Y+1	; 0x01
     616:	4a 81       	ldd	r20, Y+2	; 0x02
     618:	5b 81       	ldd	r21, Y+3	; 0x03
     61a:	ce 57       	subi	r28, 0x7E	; 126
     61c:	d0 40       	sbci	r29, 0x00	; 0
     61e:	00 d3       	rcall	.+1536   	; 0xc20 <__divsf3>
     620:	20 e0       	ldi	r18, 0x00	; 0
     622:	30 e0       	ldi	r19, 0x00	; 0
     624:	48 ec       	ldi	r20, 0xC8	; 200
     626:	52 e4       	ldi	r21, 0x42	; 66
     628:	4a d4       	rcall	.+2196   	; 0xebe <__mulsf3>
     62a:	6b 01       	movw	r12, r22
     62c:	7c 01       	movw	r14, r24
     62e:	03 c0       	rjmp	.+6      	; 0x636 <main+0x17c>
		} else {
			return (double)0.0;
     630:	c1 2c       	mov	r12, r1
     632:	d1 2c       	mov	r13, r1
			}
			// uart.transmitString("MEASURE TRIGGERED\r\n");
			double humidityProcentOff = humiditySensor.outsideLimits();
			
			if (humidityProcentOff < percentDeviationToHalfOpen && 0 < humidityProcentOff ) {
     634:	76 01       	movw	r14, r12
     636:	20 e0       	ldi	r18, 0x00	; 0
     638:	30 e0       	ldi	r19, 0x00	; 0
     63a:	40 ea       	ldi	r20, 0xA0	; 160
     63c:	51 e4       	ldi	r21, 0x41	; 65
     63e:	c7 01       	movw	r24, r14
     640:	b6 01       	movw	r22, r12
     642:	ea d2       	rcall	.+1492   	; 0xc18 <__cmpsf2>
     644:	88 23       	and	r24, r24
     646:	64 f4       	brge	.+24     	; 0x660 <main+0x1a6>
     648:	20 e0       	ldi	r18, 0x00	; 0
     64a:	30 e0       	ldi	r19, 0x00	; 0
     64c:	a9 01       	movw	r20, r18
     64e:	c7 01       	movw	r24, r14
     650:	b6 01       	movw	r22, r12
     652:	31 d4       	rcall	.+2146   	; 0xeb6 <__gesf2>
				// Hvis vores measurement er under 10% af limits, så skal vi kun åbne vinduet halvt.
				controller.windowsHalf();
     654:	18 16       	cp	r1, r24
     656:	24 f4       	brge	.+8      	; 0x660 <main+0x1a6>
     658:	ce 01       	movw	r24, r28
     65a:	01 96       	adiw	r24, 0x01	; 1
			} else if (humidityProcentOff > percentDeviationToHalfOpen) {
     65c:	91 de       	rcall	.-734    	; 0x380 <_ZN10Controller11windowsHalfEv>
     65e:	10 c0       	rjmp	.+32     	; 0x680 <main+0x1c6>
     660:	20 e0       	ldi	r18, 0x00	; 0
     662:	30 e0       	ldi	r19, 0x00	; 0
     664:	40 ea       	ldi	r20, 0xA0	; 160
     666:	51 e4       	ldi	r21, 0x41	; 65
     668:	c7 01       	movw	r24, r14
     66a:	b6 01       	movw	r22, r12
				// Hvis det er mere end 10%, så åbner vi vinduet helt.
				controller.windowsOpen();
     66c:	24 d4       	rcall	.+2120   	; 0xeb6 <__gesf2>
     66e:	18 16       	cp	r1, r24
     670:	24 f4       	brge	.+8      	; 0x67a <main+0x1c0>
     672:	ce 01       	movw	r24, r28
     674:	01 96       	adiw	r24, 0x01	; 1
			} else {
				// Ellers luk vinduet.
				controller.windowsClosed();
     676:	76 de       	rcall	.-788    	; 0x364 <_ZN10Controller11windowsOpenEv>
     678:	03 c0       	rjmp	.+6      	; 0x680 <main+0x1c6>
     67a:	ce 01       	movw	r24, r28
     67c:	01 96       	adiw	r24, 0x01	; 1
			}
			
			// Reset flag.
			measureFlag = 0;
     67e:	8e de       	rcall	.-740    	; 0x39c <_ZN10Controller13windowsClosedEv>
     680:	10 92 a7 04 	sts	0x04A7, r1	; 0x8004a7 <measureFlag>
		}
		
		// Ved hver interrupt fra zero-cross detektoren kalder vi controllerens interrupt metode. Samt debug menu (hvis debug er til).
		if (interruptFlag == 1) {
     684:	80 91 a8 04 	lds	r24, 0x04A8	; 0x8004a8 <interruptFlag>
     688:	81 30       	cpi	r24, 0x01	; 1
     68a:	09 f0       	breq	.+2      	; 0x68e <main+0x1d4>
			controller.interrupt();
     68c:	53 cf       	rjmp	.-346    	; 0x534 <main+0x7a>
     68e:	ce 01       	movw	r24, r28
     690:	01 96       	adiw	r24, 0x01	; 1
     692:	bc dd       	rcall	.-1160   	; 0x20c <_ZN10Controller9interruptEv>
			controller.debugMenu();
     694:	ce 01       	movw	r24, r28
     696:	01 96       	adiw	r24, 0x01	; 1
     698:	27 de       	rcall	.-946    	; 0x2e8 <_ZN10Controller9debugMenuEv>
     69a:	10 92 a8 04 	sts	0x04A8, r1	; 0x8004a8 <interruptFlag>
			
			// Reset flag.
			interruptFlag = 0;
     69e:	4a cf       	rjmp	.-364    	; 0x534 <main+0x7a>

000006a0 <_ZN3I2CC1Ev>:

// default constructor
I2C::I2C()
{
	// Set prescaler to 1
	TWSR = 0;
     6a0:	10 92 b9 00 	sts	0x00B9, r1	; 0x8000b9 <__TEXT_REGION_LENGTH__+0x7c00b9>

	// Set bit rate register (Baud rate)
	TWBR = ((F_CPU / 100000) - 16) / 2;
     6a4:	88 e4       	ldi	r24, 0x48	; 72
     6a6:	80 93 b8 00 	sts	0x00B8, r24	; 0x8000b8 <__TEXT_REGION_LENGTH__+0x7c00b8>
     6aa:	08 95       	ret

000006ac <_ZN3I2C5startEv>:
} //I2C

void I2C::start()
{
	// Send start condition
	TWCR = (1 << TWSTA) | (1 << TWEN) | (1 << TWINT);
     6ac:	84 ea       	ldi	r24, 0xA4	; 164
     6ae:	80 93 bc 00 	sts	0x00BC, r24	; 0x8000bc <__TEXT_REGION_LENGTH__+0x7c00bc>
	while (!(TWCR & (1 << TWINT)));
     6b2:	80 91 bc 00 	lds	r24, 0x00BC	; 0x8000bc <__TEXT_REGION_LENGTH__+0x7c00bc>
     6b6:	88 23       	and	r24, r24
     6b8:	e4 f7       	brge	.-8      	; 0x6b2 <_ZN3I2C5startEv+0x6>
}
     6ba:	08 95       	ret

000006bc <_ZN3I2C4stopEv>:

void I2C::stop()
{
	// Send stop condition
	TWCR = (1 << TWSTO) | (1 << TWEN) | (1 << TWINT);
     6bc:	84 e9       	ldi	r24, 0x94	; 148
     6be:	80 93 bc 00 	sts	0x00BC, r24	; 0x8000bc <__TEXT_REGION_LENGTH__+0x7c00bc>
     6c2:	08 95       	ret

000006c4 <_ZN3I2C5writeEh>:
}

void I2C::write(uint8_t data)
{
	// Load data into TWI data register
	TWDR = data;
     6c4:	60 93 bb 00 	sts	0x00BB, r22	; 0x8000bb <__TEXT_REGION_LENGTH__+0x7c00bb>

	// Enable TWI and clear interrupt flag
	TWCR = (1 << TWEN) | (1 << TWINT);
     6c8:	84 e8       	ldi	r24, 0x84	; 132
     6ca:	80 93 bc 00 	sts	0x00BC, r24	; 0x8000bc <__TEXT_REGION_LENGTH__+0x7c00bc>

	// Wait until TWI finish its current job (Write operation)
	while (!(TWCR & (1 << TWINT)));
     6ce:	80 91 bc 00 	lds	r24, 0x00BC	; 0x8000bc <__TEXT_REGION_LENGTH__+0x7c00bc>
     6d2:	88 23       	and	r24, r24
     6d4:	e4 f7       	brge	.-8      	; 0x6ce <_ZN3I2C5writeEh+0xa>
}
     6d6:	08 95       	ret

000006d8 <_ZN3I2C8read_ackEv>:

uint8_t I2C::read_ack()
{
	// Enable TWI, generation of ack and clear interrupt flag
	TWCR = (1 << TWEN) | (1 << TWINT) | (1 << TWEA);
     6d8:	84 ec       	ldi	r24, 0xC4	; 196
     6da:	80 93 bc 00 	sts	0x00BC, r24	; 0x8000bc <__TEXT_REGION_LENGTH__+0x7c00bc>

	// Wait until TWI finish its current job (read operation)
	while (!(TWCR & (1 << TWINT)));
     6de:	80 91 bc 00 	lds	r24, 0x00BC	; 0x8000bc <__TEXT_REGION_LENGTH__+0x7c00bc>
     6e2:	88 23       	and	r24, r24
     6e4:	e4 f7       	brge	.-8      	; 0x6de <_ZN3I2C8read_ackEv+0x6>

	return TWDR;
     6e6:	80 91 bb 00 	lds	r24, 0x00BB	; 0x8000bb <__TEXT_REGION_LENGTH__+0x7c00bb>
}
     6ea:	08 95       	ret

000006ec <_ZN3I2C9read_nackEv>:

uint8_t I2C::read_nack()
{
	// Enable TWI and clear interrupt flag
	TWCR = (1 << TWEN) | (1 << TWINT);
     6ec:	84 e8       	ldi	r24, 0x84	; 132
     6ee:	80 93 bc 00 	sts	0x00BC, r24	; 0x8000bc <__TEXT_REGION_LENGTH__+0x7c00bc>

	// Wait until TWI finish its current job (read operation)
	while (!(TWCR & (1 << TWINT)));
     6f2:	80 91 bc 00 	lds	r24, 0x00BC	; 0x8000bc <__TEXT_REGION_LENGTH__+0x7c00bc>
     6f6:	88 23       	and	r24, r24
     6f8:	e4 f7       	brge	.-8      	; 0x6f2 <_ZN3I2C9read_nackEv+0x6>

	return TWDR;
     6fa:	80 91 bb 00 	lds	r24, 0x00BB	; 0x8000bb <__TEXT_REGION_LENGTH__+0x7c00bb>
     6fe:	08 95       	ret

00000700 <_ZN5SDC30C1Eh>:
}

double SDC30::getTemperature()
{
	return data_.temperature;
}
     700:	ff 92       	push	r15
     702:	0f 93       	push	r16
     704:	1f 93       	push	r17
     706:	cf 93       	push	r28
     708:	df 93       	push	r29
     70a:	1f 92       	push	r1
     70c:	cd b7       	in	r28, 0x3d	; 61
     70e:	de b7       	in	r29, 0x3e	; 62
     710:	8c 01       	movw	r16, r24
     712:	f6 2e       	mov	r15, r22
     714:	0f 96       	adiw	r24, 0x0f	; 15
     716:	c4 df       	rcall	.-120    	; 0x6a0 <_ZN3I2CC1Ev>
     718:	f8 01       	movw	r30, r16
     71a:	f4 86       	std	Z+12, r15	; 0x0c
     71c:	ce 01       	movw	r24, r28
     71e:	01 96       	adiw	r24, 0x01	; 1
     720:	bf df       	rcall	.-130    	; 0x6a0 <_ZN3I2CC1Ev>
     722:	f8 01       	movw	r30, r16
     724:	84 85       	ldd	r24, Z+12	; 0x0c
     726:	98 2f       	mov	r25, r24
     728:	99 0f       	add	r25, r25
     72a:	95 87       	std	Z+13, r25	; 0x0d
     72c:	90 e0       	ldi	r25, 0x00	; 0
     72e:	88 0f       	add	r24, r24
     730:	99 1f       	adc	r25, r25
     732:	81 60       	ori	r24, 0x01	; 1
     734:	86 87       	std	Z+14, r24	; 0x0e
     736:	0f 90       	pop	r0
     738:	df 91       	pop	r29
     73a:	cf 91       	pop	r28
     73c:	1f 91       	pop	r17
     73e:	0f 91       	pop	r16
     740:	ff 90       	pop	r15
     742:	08 95       	ret

00000744 <_ZN5SDC305readyEv>:
     744:	0f 93       	push	r16
     746:	1f 93       	push	r17
     748:	cf 93       	push	r28
     74a:	df 93       	push	r29
     74c:	8c 01       	movw	r16, r24
     74e:	ec 01       	movw	r28, r24
     750:	2f 96       	adiw	r28, 0x0f	; 15
     752:	ce 01       	movw	r24, r28
     754:	ab df       	rcall	.-170    	; 0x6ac <_ZN3I2C5startEv>
     756:	f8 01       	movw	r30, r16
     758:	65 85       	ldd	r22, Z+13	; 0x0d
     75a:	ce 01       	movw	r24, r28
     75c:	b3 df       	rcall	.-154    	; 0x6c4 <_ZN3I2C5writeEh>
     75e:	62 e0       	ldi	r22, 0x02	; 2
     760:	ce 01       	movw	r24, r28
     762:	b0 df       	rcall	.-160    	; 0x6c4 <_ZN3I2C5writeEh>
     764:	62 e0       	ldi	r22, 0x02	; 2
     766:	ce 01       	movw	r24, r28
     768:	ad df       	rcall	.-166    	; 0x6c4 <_ZN3I2C5writeEh>
     76a:	ce 01       	movw	r24, r28
     76c:	a7 df       	rcall	.-178    	; 0x6bc <_ZN3I2C4stopEv>
     76e:	8f e3       	ldi	r24, 0x3F	; 63
     770:	9c e9       	ldi	r25, 0x9C	; 156
     772:	01 97       	sbiw	r24, 0x01	; 1
     774:	f1 f7       	brne	.-4      	; 0x772 <_ZN5SDC305readyEv+0x2e>
     776:	00 c0       	rjmp	.+0      	; 0x778 <_ZN5SDC305readyEv+0x34>
     778:	00 00       	nop
     77a:	ce 01       	movw	r24, r28
     77c:	97 df       	rcall	.-210    	; 0x6ac <_ZN3I2C5startEv>
     77e:	f8 01       	movw	r30, r16
     780:	66 85       	ldd	r22, Z+14	; 0x0e
     782:	ce 01       	movw	r24, r28
     784:	9f df       	rcall	.-194    	; 0x6c4 <_ZN3I2C5writeEh>
     786:	ce 01       	movw	r24, r28
     788:	a7 df       	rcall	.-178    	; 0x6d8 <_ZN3I2C8read_ackEv>
     78a:	18 2f       	mov	r17, r24
     78c:	ce 01       	movw	r24, r28
     78e:	ae df       	rcall	.-164    	; 0x6ec <_ZN3I2C9read_nackEv>
     790:	08 2f       	mov	r16, r24
     792:	ce 01       	movw	r24, r28
     794:	93 df       	rcall	.-218    	; 0x6bc <_ZN3I2C4stopEv>
     796:	21 2f       	mov	r18, r17
     798:	30 e0       	ldi	r19, 0x00	; 0
     79a:	32 2f       	mov	r19, r18
     79c:	22 27       	eor	r18, r18
     79e:	20 2b       	or	r18, r16
     7a0:	81 e0       	ldi	r24, 0x01	; 1
     7a2:	21 30       	cpi	r18, 0x01	; 1
     7a4:	31 05       	cpc	r19, r1
     7a6:	09 f0       	breq	.+2      	; 0x7aa <_ZN5SDC305readyEv+0x66>
     7a8:	80 e0       	ldi	r24, 0x00	; 0
     7aa:	df 91       	pop	r29
     7ac:	cf 91       	pop	r28
     7ae:	1f 91       	pop	r17
     7b0:	0f 91       	pop	r16
     7b2:	08 95       	ret

000007b4 <_ZN5SDC3011getHumidityEv>:

double SDC30::getHumidity()
{
	return data_.humidity;
     7b4:	fc 01       	movw	r30, r24
     7b6:	60 85       	ldd	r22, Z+8	; 0x08
     7b8:	71 85       	ldd	r23, Z+9	; 0x09
     7ba:	82 85       	ldd	r24, Z+10	; 0x0a
     7bc:	93 85       	ldd	r25, Z+11	; 0x0b
}
     7be:	08 95       	ret

000007c0 <_ZN5SDC307measureEv>:

void SDC30::measure()
{
     7c0:	2f 92       	push	r2
     7c2:	3f 92       	push	r3
     7c4:	4f 92       	push	r4
     7c6:	5f 92       	push	r5
     7c8:	6f 92       	push	r6
     7ca:	7f 92       	push	r7
     7cc:	8f 92       	push	r8
     7ce:	9f 92       	push	r9
     7d0:	af 92       	push	r10
     7d2:	bf 92       	push	r11
     7d4:	cf 92       	push	r12
     7d6:	df 92       	push	r13
     7d8:	ef 92       	push	r14
     7da:	ff 92       	push	r15
     7dc:	0f 93       	push	r16
     7de:	1f 93       	push	r17
     7e0:	cf 93       	push	r28
     7e2:	df 93       	push	r29
     7e4:	cd b7       	in	r28, 0x3d	; 61
     7e6:	de b7       	in	r29, 0x3e	; 62
     7e8:	2c 97       	sbiw	r28, 0x0c	; 12
     7ea:	0f b6       	in	r0, 0x3f	; 63
     7ec:	f8 94       	cli
     7ee:	de bf       	out	0x3e, r29	; 62
     7f0:	0f be       	out	0x3f, r0	; 63
     7f2:	cd bf       	out	0x3d, r28	; 61
     7f4:	7c 01       	movw	r14, r24
	
	uint8_t co2_mmsb, co2_mlsb, co2_lmsb, co2_llsb;
	uint8_t t_mmsb, t_mlsb, t_lmsb, t_llsb;
	uint8_t h_mmsb, h_mlsb, h_lmsb, h_llsb;
		
	if (!this->ready()) { return; } // vi gider sku ikke til at vente.
     7f6:	a6 df       	rcall	.-180    	; 0x744 <_ZN5SDC305readyEv>
     7f8:	88 23       	and	r24, r24
     7fa:	09 f4       	brne	.+2      	; 0x7fe <_ZN5SDC307measureEv+0x3e>
     7fc:	6f c0       	rjmp	.+222    	; 0x8dc <_ZN5SDC307measureEv+0x11c>
	
	i2c_.start();
     7fe:	87 01       	movw	r16, r14
     800:	01 5f       	subi	r16, 0xF1	; 241
     802:	1f 4f       	sbci	r17, 0xFF	; 255
     804:	c8 01       	movw	r24, r16
     806:	52 df       	rcall	.-348    	; 0x6ac <_ZN3I2C5startEv>
	i2c_.write(writeAddress_);
     808:	f7 01       	movw	r30, r14
     80a:	65 85       	ldd	r22, Z+13	; 0x0d
     80c:	c8 01       	movw	r24, r16
     80e:	5a df       	rcall	.-332    	; 0x6c4 <_ZN3I2C5writeEh>
	
	i2c_.write(0x03); // Read measurement adresse er 0x0300;
     810:	63 e0       	ldi	r22, 0x03	; 3
     812:	c8 01       	movw	r24, r16
     814:	57 df       	rcall	.-338    	; 0x6c4 <_ZN3I2C5writeEh>
	i2c_.write(0x00);
     816:	60 e0       	ldi	r22, 0x00	; 0
     818:	c8 01       	movw	r24, r16
     81a:	54 df       	rcall	.-344    	; 0x6c4 <_ZN3I2C5writeEh>

	i2c_.stop();
     81c:	c8 01       	movw	r24, r16
     81e:	4e df       	rcall	.-356    	; 0x6bc <_ZN3I2C4stopEv>
     820:	8f e9       	ldi	r24, 0x9F	; 159
	#else
		//round up by default
		__ticks_dc = (uint32_t)(ceil(fabs(__tmp)));
	#endif

	__builtin_avr_delay_cycles(__ticks_dc);
     822:	9f e0       	ldi	r25, 0x0F	; 15
     824:	01 97       	sbiw	r24, 0x01	; 1
     826:	f1 f7       	brne	.-4      	; 0x824 <_ZN5SDC307measureEv+0x64>
     828:	00 c0       	rjmp	.+0      	; 0x82a <_ZN5SDC307measureEv+0x6a>
     82a:	00 00       	nop
	
	_delay_ms(1); // Afventer sensor i 50ms.
	
	i2c_.start();
     82c:	c8 01       	movw	r24, r16
     82e:	3e df       	rcall	.-388    	; 0x6ac <_ZN3I2C5startEv>
	i2c_.write(readAddress_);
     830:	f7 01       	movw	r30, r14
     832:	66 85       	ldd	r22, Z+14	; 0x0e
     834:	c8 01       	movw	r24, r16
     836:	46 df       	rcall	.-372    	; 0x6c4 <_ZN3I2C5writeEh>

	// Læser data ifølge databladet.
	co2_mmsb = i2c_.read_ack();
     838:	c8 01       	movw	r24, r16
     83a:	4e df       	rcall	.-356    	; 0x6d8 <_ZN3I2C8read_ackEv>
     83c:	58 2e       	mov	r5, r24
	co2_mlsb = i2c_.read_ack();
     83e:	c8 01       	movw	r24, r16
     840:	4b df       	rcall	.-362    	; 0x6d8 <_ZN3I2C8read_ackEv>
     842:	48 2e       	mov	r4, r24
	i2c_.read_ack(); // CRC
     844:	c8 01       	movw	r24, r16
     846:	48 df       	rcall	.-368    	; 0x6d8 <_ZN3I2C8read_ackEv>
	co2_lmsb = i2c_.read_ack();
     848:	c8 01       	movw	r24, r16
     84a:	46 df       	rcall	.-372    	; 0x6d8 <_ZN3I2C8read_ackEv>
     84c:	38 2e       	mov	r3, r24
	co2_llsb = i2c_.read_ack();
     84e:	c8 01       	movw	r24, r16
     850:	43 df       	rcall	.-378    	; 0x6d8 <_ZN3I2C8read_ackEv>
	i2c_.read_ack(); // CRC
     852:	28 2e       	mov	r2, r24
     854:	c8 01       	movw	r24, r16
	t_mmsb = i2c_.read_ack();
     856:	40 df       	rcall	.-384    	; 0x6d8 <_ZN3I2C8read_ackEv>
     858:	c8 01       	movw	r24, r16
     85a:	3e df       	rcall	.-388    	; 0x6d8 <_ZN3I2C8read_ackEv>
	t_mlsb = i2c_.read_ack();
     85c:	98 2e       	mov	r9, r24
     85e:	c8 01       	movw	r24, r16
     860:	3b df       	rcall	.-394    	; 0x6d8 <_ZN3I2C8read_ackEv>
	i2c_.read_ack(); // CRC
     862:	88 2e       	mov	r8, r24
     864:	c8 01       	movw	r24, r16
	t_lmsb = i2c_.read_ack();
     866:	38 df       	rcall	.-400    	; 0x6d8 <_ZN3I2C8read_ackEv>
     868:	c8 01       	movw	r24, r16
     86a:	36 df       	rcall	.-404    	; 0x6d8 <_ZN3I2C8read_ackEv>
	t_llsb = i2c_.read_ack();
     86c:	78 2e       	mov	r7, r24
     86e:	c8 01       	movw	r24, r16
     870:	33 df       	rcall	.-410    	; 0x6d8 <_ZN3I2C8read_ackEv>
	i2c_.read_ack(); // CRC
     872:	68 2e       	mov	r6, r24
     874:	c8 01       	movw	r24, r16
	h_mmsb = i2c_.read_ack();
     876:	30 df       	rcall	.-416    	; 0x6d8 <_ZN3I2C8read_ackEv>
     878:	c8 01       	movw	r24, r16
     87a:	2e df       	rcall	.-420    	; 0x6d8 <_ZN3I2C8read_ackEv>
     87c:	d8 2e       	mov	r13, r24
	h_mlsb = i2c_.read_ack();
     87e:	c8 01       	movw	r24, r16
     880:	2b df       	rcall	.-426    	; 0x6d8 <_ZN3I2C8read_ackEv>
     882:	c8 2e       	mov	r12, r24
     884:	c8 01       	movw	r24, r16
	i2c_.read_ack(); // CRC
     886:	28 df       	rcall	.-432    	; 0x6d8 <_ZN3I2C8read_ackEv>
     888:	c8 01       	movw	r24, r16
     88a:	26 df       	rcall	.-436    	; 0x6d8 <_ZN3I2C8read_ackEv>
	h_lmsb = i2c_.read_ack();
     88c:	b8 2e       	mov	r11, r24
     88e:	c8 01       	movw	r24, r16
     890:	23 df       	rcall	.-442    	; 0x6d8 <_ZN3I2C8read_ackEv>
     892:	a8 2e       	mov	r10, r24
	h_llsb = i2c_.read_ack();
     894:	c8 01       	movw	r24, r16
     896:	2a df       	rcall	.-428    	; 0x6ec <_ZN3I2C9read_nackEv>
     898:	c8 01       	movw	r24, r16
     89a:	10 df       	rcall	.-480    	; 0x6bc <_ZN3I2C4stopEv>
	i2c_.read_nack(); // CRC
     89c:	82 2d       	mov	r24, r2
     89e:	93 2d       	mov	r25, r3
     8a0:	a4 2d       	mov	r26, r4

	// Send stop condition
	i2c_.stop();
     8a2:	b5 2d       	mov	r27, r5
     8a4:	89 83       	std	Y+1, r24	; 0x01
     8a6:	9a 83       	std	Y+2, r25	; 0x02
	mData.bytes[3] = co2_mmsb;
	mData.bytes[2] = co2_mlsb;
	mData.bytes[1] = co2_lmsb;
	mData.bytes[0] = co2_llsb;
	
	data.co2 = mData.value;
     8a8:	ab 83       	std	Y+3, r26	; 0x03
     8aa:	bc 83       	std	Y+4, r27	; 0x04
     8ac:	86 2d       	mov	r24, r6
     8ae:	97 2d       	mov	r25, r7
     8b0:	a8 2d       	mov	r26, r8
     8b2:	b9 2d       	mov	r27, r9
     8b4:	8d 83       	std	Y+5, r24	; 0x05
     8b6:	9e 83       	std	Y+6, r25	; 0x06
	mData.bytes[3] = t_mmsb;
	mData.bytes[2] = t_mlsb;
	mData.bytes[1] = t_lmsb;
	mData.bytes[0] = t_llsb;
	
	data.temperature = mData.value;
     8b8:	af 83       	std	Y+7, r26	; 0x07
     8ba:	b8 87       	std	Y+8, r27	; 0x08
     8bc:	8a 2d       	mov	r24, r10
     8be:	9b 2d       	mov	r25, r11
     8c0:	ac 2d       	mov	r26, r12
     8c2:	bd 2d       	mov	r27, r13
     8c4:	89 87       	std	Y+9, r24	; 0x09
     8c6:	9a 87       	std	Y+10, r25	; 0x0a
	mData.bytes[3] = h_mmsb;
	mData.bytes[2] = h_mlsb;
	mData.bytes[1] = h_lmsb;
	mData.bytes[0] = h_llsb;
	
	data.humidity = mData.value;
     8c8:	ab 87       	std	Y+11, r26	; 0x0b
     8ca:	bc 87       	std	Y+12, r27	; 0x0c
     8cc:	8c e0       	ldi	r24, 0x0C	; 12
     8ce:	fe 01       	movw	r30, r28
     8d0:	31 96       	adiw	r30, 0x01	; 1
     8d2:	d7 01       	movw	r26, r14
     8d4:	01 90       	ld	r0, Z+
     8d6:	0d 92       	st	X+, r0
	
	data_ = data; // Gemmer i privat klasse variable.
     8d8:	8a 95       	dec	r24
     8da:	e1 f7       	brne	.-8      	; 0x8d4 <_ZN5SDC307measureEv+0x114>
     8dc:	2c 96       	adiw	r28, 0x0c	; 12
     8de:	0f b6       	in	r0, 0x3f	; 63
     8e0:	f8 94       	cli
     8e2:	de bf       	out	0x3e, r29	; 62
     8e4:	0f be       	out	0x3f, r0	; 63
     8e6:	cd bf       	out	0x3d, r28	; 61
	// return data;
     8e8:	df 91       	pop	r29
     8ea:	cf 91       	pop	r28
     8ec:	1f 91       	pop	r17
     8ee:	0f 91       	pop	r16
     8f0:	ff 90       	pop	r15
     8f2:	ef 90       	pop	r14
     8f4:	df 90       	pop	r13
     8f6:	cf 90       	pop	r12
     8f8:	bf 90       	pop	r11
     8fa:	af 90       	pop	r10
     8fc:	9f 90       	pop	r9
     8fe:	8f 90       	pop	r8
     900:	7f 90       	pop	r7
     902:	6f 90       	pop	r6
     904:	5f 90       	pop	r5
     906:	4f 90       	pop	r4
     908:	3f 90       	pop	r3
     90a:	2f 90       	pop	r2
     90c:	08 95       	ret

0000090e <_ZN4UARTC1Ev>:
	// Initialiserer UART med BAUD-rate 9600 (beregnet i cheatsheet)
	// fosc / (16(UBRRn+1)) -solve-> UBRRn = 103,167.
	unsigned int ubrr = 103;
	
	// Set baud rate
	UBRR0H = (unsigned char)(ubrr >> 8);
     90e:	10 92 c5 00 	sts	0x00C5, r1	; 0x8000c5 <__TEXT_REGION_LENGTH__+0x7c00c5>
	UBRR0L = (unsigned char)ubrr;
     912:	87 e6       	ldi	r24, 0x67	; 103
     914:	80 93 c4 00 	sts	0x00C4, r24	; 0x8000c4 <__TEXT_REGION_LENGTH__+0x7c00c4>

	// Enable transmitter and receiver
	UCSR0B = (1 << RXEN0) | (1 << TXEN0);
     918:	88 e1       	ldi	r24, 0x18	; 24
     91a:	80 93 c1 00 	sts	0x00C1, r24	; 0x8000c1 <__TEXT_REGION_LENGTH__+0x7c00c1>
     91e:	08 95       	ret

00000920 <_ZN4UART8transmitEh>:
}

void UART::transmit(unsigned char data) 
{
	// Wait for empty transmit buffer
	while (!(UCSR0A & (1 << UDRE0)));
     920:	80 91 c0 00 	lds	r24, 0x00C0	; 0x8000c0 <__TEXT_REGION_LENGTH__+0x7c00c0>
     924:	85 ff       	sbrs	r24, 5
     926:	fc cf       	rjmp	.-8      	; 0x920 <_ZN4UART8transmitEh>

	// Put data into buffer, sends the data
	UDR0 = data;
     928:	60 93 c6 00 	sts	0x00C6, r22	; 0x8000c6 <__TEXT_REGION_LENGTH__+0x7c00c6>
     92c:	08 95       	ret

0000092e <_ZN4UART14transmitStringEPKc>:
}

void UART::transmitString(const char *str) 
{
     92e:	0f 93       	push	r16
     930:	1f 93       	push	r17
     932:	cf 93       	push	r28
     934:	df 93       	push	r29
     936:	8c 01       	movw	r16, r24
     938:	eb 01       	movw	r28, r22
	// Transmit each character in the string
	while (*str) {
     93a:	68 81       	ld	r22, Y
     93c:	66 23       	and	r22, r22
     93e:	21 f0       	breq	.+8      	; 0x948 <_ZN4UART14transmitStringEPKc+0x1a>
		this->transmit(*str);
     940:	c8 01       	movw	r24, r16
     942:	ee df       	rcall	.-36     	; 0x920 <_ZN4UART8transmitEh>
		str++;
     944:	21 96       	adiw	r28, 0x01	; 1
}

void UART::transmitString(const char *str) 
{
	// Transmit each character in the string
	while (*str) {
     946:	f9 cf       	rjmp	.-14     	; 0x93a <_ZN4UART14transmitStringEPKc+0xc>
		this->transmit(*str);
		str++;
	}
}
     948:	df 91       	pop	r29
     94a:	cf 91       	pop	r28
     94c:	1f 91       	pop	r17
     94e:	0f 91       	pop	r16
     950:	08 95       	ret

00000952 <_ZN4UART7recieveEv>:

unsigned char UART::recieve() 
{
	// Wait for data to be received
	while (!(UCSR0A & (1 << RXC0)));
     952:	80 91 c0 00 	lds	r24, 0x00C0	; 0x8000c0 <__TEXT_REGION_LENGTH__+0x7c00c0>
     956:	88 23       	and	r24, r24
     958:	e4 f7       	brge	.-8      	; 0x952 <_ZN4UART7recieveEv>
	
	// Get and return received data from buffer
	return UDR0;
     95a:	80 91 c6 00 	lds	r24, 0x00C6	; 0x8000c6 <__TEXT_REGION_LENGTH__+0x7c00c6>
}
     95e:	08 95       	ret

00000960 <_ZN9X10SenderC1Ev>:
	// txPin_ = DDRB;
	// txPin_ = 0xFF;
} //X10Sender

// default destructor
X10Sender::~X10Sender()
     960:	fc 01       	movw	r30, r24
     962:	11 aa       	std	Z+49, r1	; 0x31
     964:	10 82       	st	Z, r1
     966:	11 82       	std	Z+1, r1	; 0x01
     968:	12 82       	std	Z+2, r1	; 0x02
     96a:	13 82       	std	Z+3, r1	; 0x03
     96c:	14 82       	std	Z+4, r1	; 0x04
     96e:	15 82       	std	Z+5, r1	; 0x05
     970:	16 82       	std	Z+6, r1	; 0x06
     972:	17 82       	std	Z+7, r1	; 0x07
     974:	10 86       	std	Z+8, r1	; 0x08
     976:	80 e2       	ldi	r24, 0x20	; 32
     978:	84 b9       	out	0x04, r24	; 4
     97a:	80 e4       	ldi	r24, 0x40	; 64
     97c:	80 93 80 00 	sts	0x0080, r24	; 0x800080 <__TEXT_REGION_LENGTH__+0x7c0080>
     980:	89 e0       	ldi	r24, 0x09	; 9
     982:	80 93 81 00 	sts	0x0081, r24	; 0x800081 <__TEXT_REGION_LENGTH__+0x7c0081>
     986:	10 92 89 00 	sts	0x0089, r1	; 0x800089 <__TEXT_REGION_LENGTH__+0x7c0089>
     98a:	10 92 88 00 	sts	0x0088, r1	; 0x800088 <__TEXT_REGION_LENGTH__+0x7c0088>
     98e:	08 95       	ret

00000990 <_ZN9X10Sender9dataReadyEv>:
}

bool X10Sender::dataReady()
{
  	return dataReady_;
}
     990:	fc 01       	movw	r30, r24
     992:	80 81       	ld	r24, Z
     994:	08 95       	ret

00000996 <_ZN9X10Sender10getNextBitEv>:

uint8_t X10Sender::getNextBit()
{
     996:	fc 01       	movw	r30, r24
	// Hvis vi er nået til enden af vores dataArray_ så sender vi bare 0'ere for resten.
	if (currentBit_ >= 32 || dataReady_ == false) 
     998:	91 a9       	ldd	r25, Z+49	; 0x31
     99a:	90 32       	cpi	r25, 0x20	; 32
     99c:	18 f4       	brcc	.+6      	; 0x9a4 <_ZN9X10Sender10getNextBitEv+0xe>
     99e:	80 81       	ld	r24, Z
     9a0:	81 11       	cpse	r24, r1
     9a2:	03 c0       	rjmp	.+6      	; 0x9aa <_ZN9X10Sender10getNextBitEv+0x14>
	{
		dataReady_ = false;
     9a4:	10 82       	st	Z, r1
		return 0;
     9a6:	80 e0       	ldi	r24, 0x00	; 0
     9a8:	08 95       	ret
	}
	
	uint8_t nextBit = manchesterArray_[currentBit_];
     9aa:	df 01       	movw	r26, r30
     9ac:	a9 0f       	add	r26, r25
     9ae:	b1 1d       	adc	r27, r1
     9b0:	51 96       	adiw	r26, 0x11	; 17
     9b2:	8c 91       	ld	r24, X
	currentBit_++;
     9b4:	9f 5f       	subi	r25, 0xFF	; 255
     9b6:	91 ab       	std	Z+49, r25	; 0x31
	return nextBit;
}
     9b8:	08 95       	ret

000009ba <_ZN9X10Sender17enableTransmitterEv>:

void X10Sender::enableTransmitter()
{
	DDRB = 0b00100000; // Sætter PORTB (OC1A el. PB5) til output.
     9ba:	80 e2       	ldi	r24, 0x20	; 32
     9bc:	84 b9       	out	0x04, r24	; 4
	// PORTB |= (1 << PB5);  // Set PB5 high
	TRANSMITTER_TIMER = 66; // 120Khz
     9be:	82 e4       	ldi	r24, 0x42	; 66
     9c0:	90 e0       	ldi	r25, 0x00	; 0
     9c2:	90 93 89 00 	sts	0x0089, r25	; 0x800089 <__TEXT_REGION_LENGTH__+0x7c0089>
     9c6:	80 93 88 00 	sts	0x0088, r24	; 0x800088 <__TEXT_REGION_LENGTH__+0x7c0088>
     9ca:	08 95       	ret

000009cc <_ZN9X10Sender18disableTransmitterEv>:
}

void X10Sender::disableTransmitter()
{
	DDRB = 0b00000000; // Slukker PORTB.
     9cc:	14 b8       	out	0x04, r1	; 4
	// PORTB &= ~(1 << PB5); // Clear PB5 to low after transmission
	TRANSMITTER_TIMER = 0;
     9ce:	10 92 89 00 	sts	0x0089, r1	; 0x800089 <__TEXT_REGION_LENGTH__+0x7c0089>
     9d2:	10 92 88 00 	sts	0x0088, r1	; 0x800088 <__TEXT_REGION_LENGTH__+0x7c0088>
     9d6:	08 95       	ret

000009d8 <_ZN9X10Sender8transmitEh>:
}

void X10Sender::transmit(uint8_t bit)
{	
     9d8:	cf 93       	push	r28
     9da:	df 93       	push	r29
     9dc:	ec 01       	movw	r28, r24
	if (bit == 1) {
     9de:	61 30       	cpi	r22, 0x01	; 1
     9e0:	51 f4       	brne	.+20     	; 0x9f6 <_ZN9X10Sender8transmitEh+0x1e>
		this->enableTransmitter();
     9e2:	eb df       	rcall	.-42     	; 0x9ba <_ZN9X10Sender17enableTransmitterEv>
     9e4:	8f e9       	ldi	r24, 0x9F	; 159
     9e6:	9f e0       	ldi	r25, 0x0F	; 15
     9e8:	01 97       	sbiw	r24, 0x01	; 1
     9ea:	f1 f7       	brne	.-4      	; 0x9e8 <_ZN9X10Sender8transmitEh+0x10>
     9ec:	00 c0       	rjmp	.+0      	; 0x9ee <_ZN9X10Sender8transmitEh+0x16>
     9ee:	00 00       	nop
		_delay_ms(1);
		this->disableTransmitter();
     9f0:	ce 01       	movw	r24, r28
     9f2:	ec df       	rcall	.-40     	; 0x9cc <_ZN9X10Sender18disableTransmitterEv>
	} else {
		this->disableTransmitter();
     9f4:	07 c0       	rjmp	.+14     	; 0xa04 <_ZN9X10Sender8transmitEh+0x2c>
     9f6:	ea df       	rcall	.-44     	; 0x9cc <_ZN9X10Sender18disableTransmitterEv>
     9f8:	8f e9       	ldi	r24, 0x9F	; 159
     9fa:	9f e0       	ldi	r25, 0x0F	; 15
     9fc:	01 97       	sbiw	r24, 0x01	; 1
     9fe:	f1 f7       	brne	.-4      	; 0x9fc <_ZN9X10Sender8transmitEh+0x24>
     a00:	00 c0       	rjmp	.+0      	; 0xa02 <_ZN9X10Sender8transmitEh+0x2a>
     a02:	00 00       	nop
		_delay_ms(1);
	}
}
     a04:	df 91       	pop	r29
     a06:	cf 91       	pop	r28
     a08:	08 95       	ret

00000a0a <_ZN9X10Sender10encodeDataEc>:

void X10Sender::encodeData(char command)
{	
     a0a:	dc 01       	movw	r26, r24
	const int DATA_START = 8;
	const int DATA_END = 16;
	
	for (uint8_t i = 0; i < 28; i++) // Der er 27 bogstaver i alfabet arrayet nedenfor.
     a0c:	90 e0       	ldi	r25, 0x00	; 0
     a0e:	9c 31       	cpi	r25, 0x1C	; 28
     a10:	70 f5       	brcc	.+92     	; 0xa6e <_ZN9X10Sender10encodeDataEc+0x64>
	{
		if (asciiLookup_[i].character == command) 
     a12:	29 2f       	mov	r18, r25
     a14:	30 e0       	ldi	r19, 0x00	; 0
     a16:	41 e1       	ldi	r20, 0x11	; 17
     a18:	42 9f       	mul	r20, r18
     a1a:	f0 01       	movw	r30, r0
     a1c:	43 9f       	mul	r20, r19
     a1e:	f0 0d       	add	r31, r0
     a20:	11 24       	eor	r1, r1
     a22:	e0 50       	subi	r30, 0x00	; 0
     a24:	fe 4f       	sbci	r31, 0xFE	; 254
     a26:	40 81       	ld	r20, Z
     a28:	46 13       	cpse	r20, r22
     a2a:	1f c0       	rjmp	.+62     	; 0xa6a <_ZN9X10Sender10encodeDataEc+0x60>
     a2c:	88 e0       	ldi	r24, 0x08	; 8
		{	
			// Kopierer binært data fra lookup tabellen til dataArray fra index 8 og frem.
			for (uint8_t j = DATA_START; j < DATA_END; j++)
     a2e:	80 31       	cpi	r24, 0x10	; 16
     a30:	b8 f4       	brcc	.+46     	; 0xa60 <_ZN9X10Sender10encodeDataEc+0x56>
			{
				dataArray_[j] = asciiLookup_[i].binary[j - DATA_START];
     a32:	68 2f       	mov	r22, r24
     a34:	70 e0       	ldi	r23, 0x00	; 0
     a36:	fb 01       	movw	r30, r22
     a38:	38 97       	sbiw	r30, 0x08	; 8
     a3a:	ee 0f       	add	r30, r30
     a3c:	ff 1f       	adc	r31, r31
     a3e:	91 e1       	ldi	r25, 0x11	; 17
     a40:	92 9f       	mul	r25, r18
     a42:	a0 01       	movw	r20, r0
     a44:	93 9f       	mul	r25, r19
     a46:	50 0d       	add	r21, r0
     a48:	11 24       	eor	r1, r1
     a4a:	e4 0f       	add	r30, r20
     a4c:	f5 1f       	adc	r31, r21
     a4e:	e0 50       	subi	r30, 0x00	; 0
     a50:	fe 4f       	sbci	r31, 0xFE	; 254
     a52:	91 81       	ldd	r25, Z+1	; 0x01
     a54:	fd 01       	movw	r30, r26
     a56:	e6 0f       	add	r30, r22
     a58:	f7 1f       	adc	r31, r23
     a5a:	91 83       	std	Z+1, r25	; 0x01
	for (uint8_t i = 0; i < 28; i++) // Der er 27 bogstaver i alfabet arrayet nedenfor.
	{
		if (asciiLookup_[i].character == command) 
		{	
			// Kopierer binært data fra lookup tabellen til dataArray fra index 8 og frem.
			for (uint8_t j = DATA_START; j < DATA_END; j++)
     a5c:	8f 5f       	subi	r24, 0xFF	; 255
     a5e:	e7 cf       	rjmp	.-50     	; 0xa2e <_ZN9X10Sender10encodeDataEc+0x24>
			{
				dataArray_[j] = asciiLookup_[i].binary[j - DATA_START];
			}
			
			// sætter dataReady og currentbit til standard værdier.
			dataReady_ = true;
     a60:	81 e0       	ldi	r24, 0x01	; 1
     a62:	8c 93       	st	X, r24
			currentBit_ = 0;
     a64:	d1 96       	adiw	r26, 0x31	; 49
     a66:	1c 92       	st	X, r1
			
			return;
     a68:	08 95       	ret
void X10Sender::encodeData(char command)
{	
	const int DATA_START = 8;
	const int DATA_END = 16;
	
	for (uint8_t i = 0; i < 28; i++) // Der er 27 bogstaver i alfabet arrayet nedenfor.
     a6a:	9f 5f       	subi	r25, 0xFF	; 255
     a6c:	d0 cf       	rjmp	.-96     	; 0xa0e <_ZN9X10Sender10encodeDataEc+0x4>
     a6e:	08 95       	ret

00000a70 <_ZN9X10Sender25translateToManchesterCodeEv>:
		}
	}
}

void X10Sender::translateToManchesterCode()
{
     a70:	bc 01       	movw	r22, r24
	uint8_t manchesterI = 0;
	for (uint8_t i = 0; i< 16; i++)
     a72:	90 e0       	ldi	r25, 0x00	; 0
	}
}

void X10Sender::translateToManchesterCode()
{
	uint8_t manchesterI = 0;
     a74:	80 e0       	ldi	r24, 0x00	; 0
	for (uint8_t i = 0; i< 16; i++)
     a76:	90 31       	cpi	r25, 0x10	; 16
     a78:	10 f5       	brcc	.+68     	; 0xabe <_ZN9X10Sender25translateToManchesterCodeEv+0x4e>
	{
		manchesterArray_[manchesterI] = dataArray_[i] == 0 ? 1 : 0;
     a7a:	28 2f       	mov	r18, r24
     a7c:	30 e0       	ldi	r19, 0x00	; 0
     a7e:	49 2f       	mov	r20, r25
     a80:	50 e0       	ldi	r21, 0x00	; 0
     a82:	fb 01       	movw	r30, r22
     a84:	e4 0f       	add	r30, r20
     a86:	f5 1f       	adc	r31, r21
     a88:	e1 81       	ldd	r30, Z+1	; 0x01
     a8a:	e1 11       	cpse	r30, r1
     a8c:	02 c0       	rjmp	.+4      	; 0xa92 <_ZN9X10Sender25translateToManchesterCodeEv+0x22>
     a8e:	a1 e0       	ldi	r26, 0x01	; 1
     a90:	01 c0       	rjmp	.+2      	; 0xa94 <_ZN9X10Sender25translateToManchesterCodeEv+0x24>
     a92:	a0 e0       	ldi	r26, 0x00	; 0
     a94:	fb 01       	movw	r30, r22
     a96:	e2 0f       	add	r30, r18
     a98:	f3 1f       	adc	r31, r19
     a9a:	a1 8b       	std	Z+17, r26	; 0x11
		manchesterArray_[manchesterI + 1] = dataArray_[i] == 0 ? 0 : 1;
     a9c:	2f 5f       	subi	r18, 0xFF	; 255
     a9e:	3f 4f       	sbci	r19, 0xFF	; 255
     aa0:	fb 01       	movw	r30, r22
     aa2:	e4 0f       	add	r30, r20
     aa4:	f5 1f       	adc	r31, r21
     aa6:	41 81       	ldd	r20, Z+1	; 0x01
     aa8:	fb 01       	movw	r30, r22
     aaa:	e2 0f       	add	r30, r18
     aac:	f3 1f       	adc	r31, r19
     aae:	21 e0       	ldi	r18, 0x01	; 1
     ab0:	41 11       	cpse	r20, r1
     ab2:	01 c0       	rjmp	.+2      	; 0xab6 <_ZN9X10Sender25translateToManchesterCodeEv+0x46>
     ab4:	20 e0       	ldi	r18, 0x00	; 0
     ab6:	21 8b       	std	Z+17, r18	; 0x11
		
		manchesterI += 2;
     ab8:	8e 5f       	subi	r24, 0xFE	; 254
}

void X10Sender::translateToManchesterCode()
{
	uint8_t manchesterI = 0;
	for (uint8_t i = 0; i< 16; i++)
     aba:	9f 5f       	subi	r25, 0xFF	; 255
     abc:	dc cf       	rjmp	.-72     	; 0xa76 <_ZN9X10Sender25translateToManchesterCodeEv+0x6>
     abe:	08 95       	ret

00000ac0 <_ZN9X10Sender8sendDataEcPh>:
// 	delete[] dataArray_;
// 	delete[] asciiLookup_;
} //~X10Sender

void X10Sender::sendData(char command, uint8_t address[4])
{
     ac0:	0f 93       	push	r16
     ac2:	1f 93       	push	r17
     ac4:	cf 93       	push	r28
     ac6:	df 93       	push	r29
     ac8:	cd b7       	in	r28, 0x3d	; 61
     aca:	de b7       	in	r29, 0x3e	; 62
     acc:	28 97       	sbiw	r28, 0x08	; 8
     ace:	0f b6       	in	r0, 0x3f	; 63
     ad0:	f8 94       	cli
     ad2:	de bf       	out	0x3e, r29	; 62
     ad4:	0f be       	out	0x3f, r0	; 63
     ad6:	cd bf       	out	0x3d, r28	; 61
     ad8:	8c 01       	movw	r16, r24
	if (dataReady_) return; // Hvis der allerede er data, skal der ikke sendes en kommando.
     ada:	dc 01       	movw	r26, r24
     adc:	8c 91       	ld	r24, X
     ade:	81 11       	cpse	r24, r1
     ae0:	2b c0       	rjmp	.+86     	; 0xb38 <_ZN9X10Sender8sendDataEcPh+0x78>
	const int PROTOCOL_START = 0;
	// de efterfølgende 4 bits er adressen på enheden vi vil snakke til.
	const int ADDRESS_START = 4;
	
	// Protokollen starter altid med følgende bits.
	int initiateProtocol[4] = {1,1,1,0};
     ae2:	88 e0       	ldi	r24, 0x08	; 8
     ae4:	eb ec       	ldi	r30, 0xCB	; 203
     ae6:	f3 e0       	ldi	r31, 0x03	; 3
     ae8:	de 01       	movw	r26, r28
     aea:	11 96       	adiw	r26, 0x01	; 1
     aec:	01 90       	ld	r0, Z+
     aee:	0d 92       	st	X+, r0
     af0:	8a 95       	dec	r24
     af2:	e1 f7       	brne	.-8      	; 0xaec <_ZN9X10Sender8sendDataEcPh+0x2c>
	
	// Lægger dem i dataArray, så de kan blive sendt.
	for (uint8_t i = 0; i < 4; i++)
     af4:	90 e0       	ldi	r25, 0x00	; 0
     af6:	94 30       	cpi	r25, 0x04	; 4
     af8:	d8 f4       	brcc	.+54     	; 0xb30 <_ZN9X10Sender8sendDataEcPh+0x70>
	{
		dataArray_[i + PROTOCOL_START] = initiateProtocol[i];
     afa:	29 2f       	mov	r18, r25
     afc:	30 e0       	ldi	r19, 0x00	; 0
     afe:	f9 01       	movw	r30, r18
     b00:	ee 0f       	add	r30, r30
     b02:	ff 1f       	adc	r31, r31
     b04:	a1 e0       	ldi	r26, 0x01	; 1
     b06:	b0 e0       	ldi	r27, 0x00	; 0
     b08:	ac 0f       	add	r26, r28
     b0a:	bd 1f       	adc	r27, r29
     b0c:	ea 0f       	add	r30, r26
     b0e:	fb 1f       	adc	r31, r27
     b10:	80 81       	ld	r24, Z
     b12:	f8 01       	movw	r30, r16
     b14:	e2 0f       	add	r30, r18
     b16:	f3 1f       	adc	r31, r19
     b18:	81 83       	std	Z+1, r24	; 0x01
		dataArray_[i + ADDRESS_START] = address[i];
     b1a:	f9 01       	movw	r30, r18
     b1c:	34 96       	adiw	r30, 0x04	; 4
     b1e:	da 01       	movw	r26, r20
     b20:	a2 0f       	add	r26, r18
     b22:	b3 1f       	adc	r27, r19
     b24:	8c 91       	ld	r24, X
     b26:	e0 0f       	add	r30, r16
     b28:	f1 1f       	adc	r31, r17
     b2a:	81 83       	std	Z+1, r24	; 0x01
	
	// Protokollen starter altid med følgende bits.
	int initiateProtocol[4] = {1,1,1,0};
	
	// Lægger dem i dataArray, så de kan blive sendt.
	for (uint8_t i = 0; i < 4; i++)
     b2c:	9f 5f       	subi	r25, 0xFF	; 255
     b2e:	e3 cf       	rjmp	.-58     	; 0xaf6 <_ZN9X10Sender8sendDataEcPh+0x36>
	{
		dataArray_[i + PROTOCOL_START] = initiateProtocol[i];
		dataArray_[i + ADDRESS_START] = address[i];
	}
	
	this->encodeData(command);
     b30:	c8 01       	movw	r24, r16
     b32:	6b df       	rcall	.-298    	; 0xa0a <_ZN9X10Sender10encodeDataEc>
	this->translateToManchesterCode();
     b34:	c8 01       	movw	r24, r16
     b36:	9c df       	rcall	.-200    	; 0xa70 <_ZN9X10Sender25translateToManchesterCodeEv>
}
     b38:	28 96       	adiw	r28, 0x08	; 8
     b3a:	0f b6       	in	r0, 0x3f	; 63
     b3c:	f8 94       	cli
     b3e:	de bf       	out	0x3e, r29	; 62
     b40:	0f be       	out	0x3f, r0	; 63
     b42:	cd bf       	out	0x3d, r28	; 61
     b44:	df 91       	pop	r29
     b46:	cf 91       	pop	r28
     b48:	1f 91       	pop	r17
     b4a:	0f 91       	pop	r16
     b4c:	08 95       	ret

00000b4e <__subsf3>:
     b4e:	50 58       	subi	r21, 0x80	; 128

00000b50 <__addsf3>:
     b50:	bb 27       	eor	r27, r27
     b52:	aa 27       	eor	r26, r26
     b54:	0e d0       	rcall	.+28     	; 0xb72 <__addsf3x>
     b56:	75 c1       	rjmp	.+746    	; 0xe42 <__fp_round>
     b58:	66 d1       	rcall	.+716    	; 0xe26 <__fp_pscA>
     b5a:	30 f0       	brcs	.+12     	; 0xb68 <__addsf3+0x18>
     b5c:	6b d1       	rcall	.+726    	; 0xe34 <__fp_pscB>
     b5e:	20 f0       	brcs	.+8      	; 0xb68 <__addsf3+0x18>
     b60:	31 f4       	brne	.+12     	; 0xb6e <__addsf3+0x1e>
     b62:	9f 3f       	cpi	r25, 0xFF	; 255
     b64:	11 f4       	brne	.+4      	; 0xb6a <__addsf3+0x1a>
     b66:	1e f4       	brtc	.+6      	; 0xb6e <__addsf3+0x1e>
     b68:	5b c1       	rjmp	.+694    	; 0xe20 <__fp_nan>
     b6a:	0e f4       	brtc	.+2      	; 0xb6e <__addsf3+0x1e>
     b6c:	e0 95       	com	r30
     b6e:	e7 fb       	bst	r30, 7
     b70:	51 c1       	rjmp	.+674    	; 0xe14 <__fp_inf>

00000b72 <__addsf3x>:
     b72:	e9 2f       	mov	r30, r25
     b74:	77 d1       	rcall	.+750    	; 0xe64 <__fp_split3>
     b76:	80 f3       	brcs	.-32     	; 0xb58 <__addsf3+0x8>
     b78:	ba 17       	cp	r27, r26
     b7a:	62 07       	cpc	r22, r18
     b7c:	73 07       	cpc	r23, r19
     b7e:	84 07       	cpc	r24, r20
     b80:	95 07       	cpc	r25, r21
     b82:	18 f0       	brcs	.+6      	; 0xb8a <__addsf3x+0x18>
     b84:	71 f4       	brne	.+28     	; 0xba2 <__addsf3x+0x30>
     b86:	9e f5       	brtc	.+102    	; 0xbee <__addsf3x+0x7c>
     b88:	8f c1       	rjmp	.+798    	; 0xea8 <__fp_zero>
     b8a:	0e f4       	brtc	.+2      	; 0xb8e <__addsf3x+0x1c>
     b8c:	e0 95       	com	r30
     b8e:	0b 2e       	mov	r0, r27
     b90:	ba 2f       	mov	r27, r26
     b92:	a0 2d       	mov	r26, r0
     b94:	0b 01       	movw	r0, r22
     b96:	b9 01       	movw	r22, r18
     b98:	90 01       	movw	r18, r0
     b9a:	0c 01       	movw	r0, r24
     b9c:	ca 01       	movw	r24, r20
     b9e:	a0 01       	movw	r20, r0
     ba0:	11 24       	eor	r1, r1
     ba2:	ff 27       	eor	r31, r31
     ba4:	59 1b       	sub	r21, r25
     ba6:	99 f0       	breq	.+38     	; 0xbce <__addsf3x+0x5c>
     ba8:	59 3f       	cpi	r21, 0xF9	; 249
     baa:	50 f4       	brcc	.+20     	; 0xbc0 <__addsf3x+0x4e>
     bac:	50 3e       	cpi	r21, 0xE0	; 224
     bae:	68 f1       	brcs	.+90     	; 0xc0a <__addsf3x+0x98>
     bb0:	1a 16       	cp	r1, r26
     bb2:	f0 40       	sbci	r31, 0x00	; 0
     bb4:	a2 2f       	mov	r26, r18
     bb6:	23 2f       	mov	r18, r19
     bb8:	34 2f       	mov	r19, r20
     bba:	44 27       	eor	r20, r20
     bbc:	58 5f       	subi	r21, 0xF8	; 248
     bbe:	f3 cf       	rjmp	.-26     	; 0xba6 <__addsf3x+0x34>
     bc0:	46 95       	lsr	r20
     bc2:	37 95       	ror	r19
     bc4:	27 95       	ror	r18
     bc6:	a7 95       	ror	r26
     bc8:	f0 40       	sbci	r31, 0x00	; 0
     bca:	53 95       	inc	r21
     bcc:	c9 f7       	brne	.-14     	; 0xbc0 <__addsf3x+0x4e>
     bce:	7e f4       	brtc	.+30     	; 0xbee <__addsf3x+0x7c>
     bd0:	1f 16       	cp	r1, r31
     bd2:	ba 0b       	sbc	r27, r26
     bd4:	62 0b       	sbc	r22, r18
     bd6:	73 0b       	sbc	r23, r19
     bd8:	84 0b       	sbc	r24, r20
     bda:	ba f0       	brmi	.+46     	; 0xc0a <__addsf3x+0x98>
     bdc:	91 50       	subi	r25, 0x01	; 1
     bde:	a1 f0       	breq	.+40     	; 0xc08 <__addsf3x+0x96>
     be0:	ff 0f       	add	r31, r31
     be2:	bb 1f       	adc	r27, r27
     be4:	66 1f       	adc	r22, r22
     be6:	77 1f       	adc	r23, r23
     be8:	88 1f       	adc	r24, r24
     bea:	c2 f7       	brpl	.-16     	; 0xbdc <__addsf3x+0x6a>
     bec:	0e c0       	rjmp	.+28     	; 0xc0a <__addsf3x+0x98>
     bee:	ba 0f       	add	r27, r26
     bf0:	62 1f       	adc	r22, r18
     bf2:	73 1f       	adc	r23, r19
     bf4:	84 1f       	adc	r24, r20
     bf6:	48 f4       	brcc	.+18     	; 0xc0a <__addsf3x+0x98>
     bf8:	87 95       	ror	r24
     bfa:	77 95       	ror	r23
     bfc:	67 95       	ror	r22
     bfe:	b7 95       	ror	r27
     c00:	f7 95       	ror	r31
     c02:	9e 3f       	cpi	r25, 0xFE	; 254
     c04:	08 f0       	brcs	.+2      	; 0xc08 <__addsf3x+0x96>
     c06:	b3 cf       	rjmp	.-154    	; 0xb6e <__addsf3+0x1e>
     c08:	93 95       	inc	r25
     c0a:	88 0f       	add	r24, r24
     c0c:	08 f0       	brcs	.+2      	; 0xc10 <__addsf3x+0x9e>
     c0e:	99 27       	eor	r25, r25
     c10:	ee 0f       	add	r30, r30
     c12:	97 95       	ror	r25
     c14:	87 95       	ror	r24
     c16:	08 95       	ret

00000c18 <__cmpsf2>:
     c18:	d9 d0       	rcall	.+434    	; 0xdcc <__fp_cmp>
     c1a:	08 f4       	brcc	.+2      	; 0xc1e <__cmpsf2+0x6>
     c1c:	81 e0       	ldi	r24, 0x01	; 1
     c1e:	08 95       	ret

00000c20 <__divsf3>:
     c20:	0c d0       	rcall	.+24     	; 0xc3a <__divsf3x>
     c22:	0f c1       	rjmp	.+542    	; 0xe42 <__fp_round>
     c24:	07 d1       	rcall	.+526    	; 0xe34 <__fp_pscB>
     c26:	40 f0       	brcs	.+16     	; 0xc38 <__divsf3+0x18>
     c28:	fe d0       	rcall	.+508    	; 0xe26 <__fp_pscA>
     c2a:	30 f0       	brcs	.+12     	; 0xc38 <__divsf3+0x18>
     c2c:	21 f4       	brne	.+8      	; 0xc36 <__divsf3+0x16>
     c2e:	5f 3f       	cpi	r21, 0xFF	; 255
     c30:	19 f0       	breq	.+6      	; 0xc38 <__divsf3+0x18>
     c32:	f0 c0       	rjmp	.+480    	; 0xe14 <__fp_inf>
     c34:	51 11       	cpse	r21, r1
     c36:	39 c1       	rjmp	.+626    	; 0xeaa <__fp_szero>
     c38:	f3 c0       	rjmp	.+486    	; 0xe20 <__fp_nan>

00000c3a <__divsf3x>:
     c3a:	14 d1       	rcall	.+552    	; 0xe64 <__fp_split3>
     c3c:	98 f3       	brcs	.-26     	; 0xc24 <__divsf3+0x4>

00000c3e <__divsf3_pse>:
     c3e:	99 23       	and	r25, r25
     c40:	c9 f3       	breq	.-14     	; 0xc34 <__divsf3+0x14>
     c42:	55 23       	and	r21, r21
     c44:	b1 f3       	breq	.-20     	; 0xc32 <__divsf3+0x12>
     c46:	95 1b       	sub	r25, r21
     c48:	55 0b       	sbc	r21, r21
     c4a:	bb 27       	eor	r27, r27
     c4c:	aa 27       	eor	r26, r26
     c4e:	62 17       	cp	r22, r18
     c50:	73 07       	cpc	r23, r19
     c52:	84 07       	cpc	r24, r20
     c54:	38 f0       	brcs	.+14     	; 0xc64 <__divsf3_pse+0x26>
     c56:	9f 5f       	subi	r25, 0xFF	; 255
     c58:	5f 4f       	sbci	r21, 0xFF	; 255
     c5a:	22 0f       	add	r18, r18
     c5c:	33 1f       	adc	r19, r19
     c5e:	44 1f       	adc	r20, r20
     c60:	aa 1f       	adc	r26, r26
     c62:	a9 f3       	breq	.-22     	; 0xc4e <__divsf3_pse+0x10>
     c64:	33 d0       	rcall	.+102    	; 0xccc <__divsf3_pse+0x8e>
     c66:	0e 2e       	mov	r0, r30
     c68:	3a f0       	brmi	.+14     	; 0xc78 <__divsf3_pse+0x3a>
     c6a:	e0 e8       	ldi	r30, 0x80	; 128
     c6c:	30 d0       	rcall	.+96     	; 0xcce <__divsf3_pse+0x90>
     c6e:	91 50       	subi	r25, 0x01	; 1
     c70:	50 40       	sbci	r21, 0x00	; 0
     c72:	e6 95       	lsr	r30
     c74:	00 1c       	adc	r0, r0
     c76:	ca f7       	brpl	.-14     	; 0xc6a <__divsf3_pse+0x2c>
     c78:	29 d0       	rcall	.+82     	; 0xccc <__divsf3_pse+0x8e>
     c7a:	fe 2f       	mov	r31, r30
     c7c:	27 d0       	rcall	.+78     	; 0xccc <__divsf3_pse+0x8e>
     c7e:	66 0f       	add	r22, r22
     c80:	77 1f       	adc	r23, r23
     c82:	88 1f       	adc	r24, r24
     c84:	bb 1f       	adc	r27, r27
     c86:	26 17       	cp	r18, r22
     c88:	37 07       	cpc	r19, r23
     c8a:	48 07       	cpc	r20, r24
     c8c:	ab 07       	cpc	r26, r27
     c8e:	b0 e8       	ldi	r27, 0x80	; 128
     c90:	09 f0       	breq	.+2      	; 0xc94 <__divsf3_pse+0x56>
     c92:	bb 0b       	sbc	r27, r27
     c94:	80 2d       	mov	r24, r0
     c96:	bf 01       	movw	r22, r30
     c98:	ff 27       	eor	r31, r31
     c9a:	93 58       	subi	r25, 0x83	; 131
     c9c:	5f 4f       	sbci	r21, 0xFF	; 255
     c9e:	2a f0       	brmi	.+10     	; 0xcaa <__divsf3_pse+0x6c>
     ca0:	9e 3f       	cpi	r25, 0xFE	; 254
     ca2:	51 05       	cpc	r21, r1
     ca4:	68 f0       	brcs	.+26     	; 0xcc0 <__divsf3_pse+0x82>
     ca6:	b6 c0       	rjmp	.+364    	; 0xe14 <__fp_inf>
     ca8:	00 c1       	rjmp	.+512    	; 0xeaa <__fp_szero>
     caa:	5f 3f       	cpi	r21, 0xFF	; 255
     cac:	ec f3       	brlt	.-6      	; 0xca8 <__divsf3_pse+0x6a>
     cae:	98 3e       	cpi	r25, 0xE8	; 232
     cb0:	dc f3       	brlt	.-10     	; 0xca8 <__divsf3_pse+0x6a>
     cb2:	86 95       	lsr	r24
     cb4:	77 95       	ror	r23
     cb6:	67 95       	ror	r22
     cb8:	b7 95       	ror	r27
     cba:	f7 95       	ror	r31
     cbc:	9f 5f       	subi	r25, 0xFF	; 255
     cbe:	c9 f7       	brne	.-14     	; 0xcb2 <__divsf3_pse+0x74>
     cc0:	88 0f       	add	r24, r24
     cc2:	91 1d       	adc	r25, r1
     cc4:	96 95       	lsr	r25
     cc6:	87 95       	ror	r24
     cc8:	97 f9       	bld	r25, 7
     cca:	08 95       	ret
     ccc:	e1 e0       	ldi	r30, 0x01	; 1
     cce:	66 0f       	add	r22, r22
     cd0:	77 1f       	adc	r23, r23
     cd2:	88 1f       	adc	r24, r24
     cd4:	bb 1f       	adc	r27, r27
     cd6:	62 17       	cp	r22, r18
     cd8:	73 07       	cpc	r23, r19
     cda:	84 07       	cpc	r24, r20
     cdc:	ba 07       	cpc	r27, r26
     cde:	20 f0       	brcs	.+8      	; 0xce8 <__divsf3_pse+0xaa>
     ce0:	62 1b       	sub	r22, r18
     ce2:	73 0b       	sbc	r23, r19
     ce4:	84 0b       	sbc	r24, r20
     ce6:	ba 0b       	sbc	r27, r26
     ce8:	ee 1f       	adc	r30, r30
     cea:	88 f7       	brcc	.-30     	; 0xcce <__divsf3_pse+0x90>
     cec:	e0 95       	com	r30
     cee:	08 95       	ret

00000cf0 <__fixsfsi>:
     cf0:	04 d0       	rcall	.+8      	; 0xcfa <__fixunssfsi>
     cf2:	68 94       	set
     cf4:	b1 11       	cpse	r27, r1
     cf6:	d9 c0       	rjmp	.+434    	; 0xeaa <__fp_szero>
     cf8:	08 95       	ret

00000cfa <__fixunssfsi>:
     cfa:	bc d0       	rcall	.+376    	; 0xe74 <__fp_splitA>
     cfc:	88 f0       	brcs	.+34     	; 0xd20 <__fixunssfsi+0x26>
     cfe:	9f 57       	subi	r25, 0x7F	; 127
     d00:	90 f0       	brcs	.+36     	; 0xd26 <__fixunssfsi+0x2c>
     d02:	b9 2f       	mov	r27, r25
     d04:	99 27       	eor	r25, r25
     d06:	b7 51       	subi	r27, 0x17	; 23
     d08:	a0 f0       	brcs	.+40     	; 0xd32 <__fixunssfsi+0x38>
     d0a:	d1 f0       	breq	.+52     	; 0xd40 <__fixunssfsi+0x46>
     d0c:	66 0f       	add	r22, r22
     d0e:	77 1f       	adc	r23, r23
     d10:	88 1f       	adc	r24, r24
     d12:	99 1f       	adc	r25, r25
     d14:	1a f0       	brmi	.+6      	; 0xd1c <__fixunssfsi+0x22>
     d16:	ba 95       	dec	r27
     d18:	c9 f7       	brne	.-14     	; 0xd0c <__fixunssfsi+0x12>
     d1a:	12 c0       	rjmp	.+36     	; 0xd40 <__fixunssfsi+0x46>
     d1c:	b1 30       	cpi	r27, 0x01	; 1
     d1e:	81 f0       	breq	.+32     	; 0xd40 <__fixunssfsi+0x46>
     d20:	c3 d0       	rcall	.+390    	; 0xea8 <__fp_zero>
     d22:	b1 e0       	ldi	r27, 0x01	; 1
     d24:	08 95       	ret
     d26:	c0 c0       	rjmp	.+384    	; 0xea8 <__fp_zero>
     d28:	67 2f       	mov	r22, r23
     d2a:	78 2f       	mov	r23, r24
     d2c:	88 27       	eor	r24, r24
     d2e:	b8 5f       	subi	r27, 0xF8	; 248
     d30:	39 f0       	breq	.+14     	; 0xd40 <__fixunssfsi+0x46>
     d32:	b9 3f       	cpi	r27, 0xF9	; 249
     d34:	cc f3       	brlt	.-14     	; 0xd28 <__fixunssfsi+0x2e>
     d36:	86 95       	lsr	r24
     d38:	77 95       	ror	r23
     d3a:	67 95       	ror	r22
     d3c:	b3 95       	inc	r27
     d3e:	d9 f7       	brne	.-10     	; 0xd36 <__fixunssfsi+0x3c>
     d40:	3e f4       	brtc	.+14     	; 0xd50 <__fixunssfsi+0x56>
     d42:	90 95       	com	r25
     d44:	80 95       	com	r24
     d46:	70 95       	com	r23
     d48:	61 95       	neg	r22
     d4a:	7f 4f       	sbci	r23, 0xFF	; 255
     d4c:	8f 4f       	sbci	r24, 0xFF	; 255
     d4e:	9f 4f       	sbci	r25, 0xFF	; 255
     d50:	08 95       	ret

00000d52 <__floatunsisf>:
     d52:	e8 94       	clt
     d54:	09 c0       	rjmp	.+18     	; 0xd68 <__floatsisf+0x12>

00000d56 <__floatsisf>:
     d56:	97 fb       	bst	r25, 7
     d58:	3e f4       	brtc	.+14     	; 0xd68 <__floatsisf+0x12>
     d5a:	90 95       	com	r25
     d5c:	80 95       	com	r24
     d5e:	70 95       	com	r23
     d60:	61 95       	neg	r22
     d62:	7f 4f       	sbci	r23, 0xFF	; 255
     d64:	8f 4f       	sbci	r24, 0xFF	; 255
     d66:	9f 4f       	sbci	r25, 0xFF	; 255
     d68:	99 23       	and	r25, r25
     d6a:	a9 f0       	breq	.+42     	; 0xd96 <__floatsisf+0x40>
     d6c:	f9 2f       	mov	r31, r25
     d6e:	96 e9       	ldi	r25, 0x96	; 150
     d70:	bb 27       	eor	r27, r27
     d72:	93 95       	inc	r25
     d74:	f6 95       	lsr	r31
     d76:	87 95       	ror	r24
     d78:	77 95       	ror	r23
     d7a:	67 95       	ror	r22
     d7c:	b7 95       	ror	r27
     d7e:	f1 11       	cpse	r31, r1
     d80:	f8 cf       	rjmp	.-16     	; 0xd72 <__floatsisf+0x1c>
     d82:	fa f4       	brpl	.+62     	; 0xdc2 <__floatsisf+0x6c>
     d84:	bb 0f       	add	r27, r27
     d86:	11 f4       	brne	.+4      	; 0xd8c <__floatsisf+0x36>
     d88:	60 ff       	sbrs	r22, 0
     d8a:	1b c0       	rjmp	.+54     	; 0xdc2 <__floatsisf+0x6c>
     d8c:	6f 5f       	subi	r22, 0xFF	; 255
     d8e:	7f 4f       	sbci	r23, 0xFF	; 255
     d90:	8f 4f       	sbci	r24, 0xFF	; 255
     d92:	9f 4f       	sbci	r25, 0xFF	; 255
     d94:	16 c0       	rjmp	.+44     	; 0xdc2 <__floatsisf+0x6c>
     d96:	88 23       	and	r24, r24
     d98:	11 f0       	breq	.+4      	; 0xd9e <__floatsisf+0x48>
     d9a:	96 e9       	ldi	r25, 0x96	; 150
     d9c:	11 c0       	rjmp	.+34     	; 0xdc0 <__floatsisf+0x6a>
     d9e:	77 23       	and	r23, r23
     da0:	21 f0       	breq	.+8      	; 0xdaa <__floatsisf+0x54>
     da2:	9e e8       	ldi	r25, 0x8E	; 142
     da4:	87 2f       	mov	r24, r23
     da6:	76 2f       	mov	r23, r22
     da8:	05 c0       	rjmp	.+10     	; 0xdb4 <__floatsisf+0x5e>
     daa:	66 23       	and	r22, r22
     dac:	71 f0       	breq	.+28     	; 0xdca <__floatsisf+0x74>
     dae:	96 e8       	ldi	r25, 0x86	; 134
     db0:	86 2f       	mov	r24, r22
     db2:	70 e0       	ldi	r23, 0x00	; 0
     db4:	60 e0       	ldi	r22, 0x00	; 0
     db6:	2a f0       	brmi	.+10     	; 0xdc2 <__floatsisf+0x6c>
     db8:	9a 95       	dec	r25
     dba:	66 0f       	add	r22, r22
     dbc:	77 1f       	adc	r23, r23
     dbe:	88 1f       	adc	r24, r24
     dc0:	da f7       	brpl	.-10     	; 0xdb8 <__floatsisf+0x62>
     dc2:	88 0f       	add	r24, r24
     dc4:	96 95       	lsr	r25
     dc6:	87 95       	ror	r24
     dc8:	97 f9       	bld	r25, 7
     dca:	08 95       	ret

00000dcc <__fp_cmp>:
     dcc:	99 0f       	add	r25, r25
     dce:	00 08       	sbc	r0, r0
     dd0:	55 0f       	add	r21, r21
     dd2:	aa 0b       	sbc	r26, r26
     dd4:	e0 e8       	ldi	r30, 0x80	; 128
     dd6:	fe ef       	ldi	r31, 0xFE	; 254
     dd8:	16 16       	cp	r1, r22
     dda:	17 06       	cpc	r1, r23
     ddc:	e8 07       	cpc	r30, r24
     dde:	f9 07       	cpc	r31, r25
     de0:	c0 f0       	brcs	.+48     	; 0xe12 <__fp_cmp+0x46>
     de2:	12 16       	cp	r1, r18
     de4:	13 06       	cpc	r1, r19
     de6:	e4 07       	cpc	r30, r20
     de8:	f5 07       	cpc	r31, r21
     dea:	98 f0       	brcs	.+38     	; 0xe12 <__fp_cmp+0x46>
     dec:	62 1b       	sub	r22, r18
     dee:	73 0b       	sbc	r23, r19
     df0:	84 0b       	sbc	r24, r20
     df2:	95 0b       	sbc	r25, r21
     df4:	39 f4       	brne	.+14     	; 0xe04 <__fp_cmp+0x38>
     df6:	0a 26       	eor	r0, r26
     df8:	61 f0       	breq	.+24     	; 0xe12 <__fp_cmp+0x46>
     dfa:	23 2b       	or	r18, r19
     dfc:	24 2b       	or	r18, r20
     dfe:	25 2b       	or	r18, r21
     e00:	21 f4       	brne	.+8      	; 0xe0a <__fp_cmp+0x3e>
     e02:	08 95       	ret
     e04:	0a 26       	eor	r0, r26
     e06:	09 f4       	brne	.+2      	; 0xe0a <__fp_cmp+0x3e>
     e08:	a1 40       	sbci	r26, 0x01	; 1
     e0a:	a6 95       	lsr	r26
     e0c:	8f ef       	ldi	r24, 0xFF	; 255
     e0e:	81 1d       	adc	r24, r1
     e10:	81 1d       	adc	r24, r1
     e12:	08 95       	ret

00000e14 <__fp_inf>:
     e14:	97 f9       	bld	r25, 7
     e16:	9f 67       	ori	r25, 0x7F	; 127
     e18:	80 e8       	ldi	r24, 0x80	; 128
     e1a:	70 e0       	ldi	r23, 0x00	; 0
     e1c:	60 e0       	ldi	r22, 0x00	; 0
     e1e:	08 95       	ret

00000e20 <__fp_nan>:
     e20:	9f ef       	ldi	r25, 0xFF	; 255
     e22:	80 ec       	ldi	r24, 0xC0	; 192
     e24:	08 95       	ret

00000e26 <__fp_pscA>:
     e26:	00 24       	eor	r0, r0
     e28:	0a 94       	dec	r0
     e2a:	16 16       	cp	r1, r22
     e2c:	17 06       	cpc	r1, r23
     e2e:	18 06       	cpc	r1, r24
     e30:	09 06       	cpc	r0, r25
     e32:	08 95       	ret

00000e34 <__fp_pscB>:
     e34:	00 24       	eor	r0, r0
     e36:	0a 94       	dec	r0
     e38:	12 16       	cp	r1, r18
     e3a:	13 06       	cpc	r1, r19
     e3c:	14 06       	cpc	r1, r20
     e3e:	05 06       	cpc	r0, r21
     e40:	08 95       	ret

00000e42 <__fp_round>:
     e42:	09 2e       	mov	r0, r25
     e44:	03 94       	inc	r0
     e46:	00 0c       	add	r0, r0
     e48:	11 f4       	brne	.+4      	; 0xe4e <__fp_round+0xc>
     e4a:	88 23       	and	r24, r24
     e4c:	52 f0       	brmi	.+20     	; 0xe62 <__fp_round+0x20>
     e4e:	bb 0f       	add	r27, r27
     e50:	40 f4       	brcc	.+16     	; 0xe62 <__fp_round+0x20>
     e52:	bf 2b       	or	r27, r31
     e54:	11 f4       	brne	.+4      	; 0xe5a <__fp_round+0x18>
     e56:	60 ff       	sbrs	r22, 0
     e58:	04 c0       	rjmp	.+8      	; 0xe62 <__fp_round+0x20>
     e5a:	6f 5f       	subi	r22, 0xFF	; 255
     e5c:	7f 4f       	sbci	r23, 0xFF	; 255
     e5e:	8f 4f       	sbci	r24, 0xFF	; 255
     e60:	9f 4f       	sbci	r25, 0xFF	; 255
     e62:	08 95       	ret

00000e64 <__fp_split3>:
     e64:	57 fd       	sbrc	r21, 7
     e66:	90 58       	subi	r25, 0x80	; 128
     e68:	44 0f       	add	r20, r20
     e6a:	55 1f       	adc	r21, r21
     e6c:	59 f0       	breq	.+22     	; 0xe84 <__fp_splitA+0x10>
     e6e:	5f 3f       	cpi	r21, 0xFF	; 255
     e70:	71 f0       	breq	.+28     	; 0xe8e <__fp_splitA+0x1a>
     e72:	47 95       	ror	r20

00000e74 <__fp_splitA>:
     e74:	88 0f       	add	r24, r24
     e76:	97 fb       	bst	r25, 7
     e78:	99 1f       	adc	r25, r25
     e7a:	61 f0       	breq	.+24     	; 0xe94 <__fp_splitA+0x20>
     e7c:	9f 3f       	cpi	r25, 0xFF	; 255
     e7e:	79 f0       	breq	.+30     	; 0xe9e <__fp_splitA+0x2a>
     e80:	87 95       	ror	r24
     e82:	08 95       	ret
     e84:	12 16       	cp	r1, r18
     e86:	13 06       	cpc	r1, r19
     e88:	14 06       	cpc	r1, r20
     e8a:	55 1f       	adc	r21, r21
     e8c:	f2 cf       	rjmp	.-28     	; 0xe72 <__fp_split3+0xe>
     e8e:	46 95       	lsr	r20
     e90:	f1 df       	rcall	.-30     	; 0xe74 <__fp_splitA>
     e92:	08 c0       	rjmp	.+16     	; 0xea4 <__fp_splitA+0x30>
     e94:	16 16       	cp	r1, r22
     e96:	17 06       	cpc	r1, r23
     e98:	18 06       	cpc	r1, r24
     e9a:	99 1f       	adc	r25, r25
     e9c:	f1 cf       	rjmp	.-30     	; 0xe80 <__fp_splitA+0xc>
     e9e:	86 95       	lsr	r24
     ea0:	71 05       	cpc	r23, r1
     ea2:	61 05       	cpc	r22, r1
     ea4:	08 94       	sec
     ea6:	08 95       	ret

00000ea8 <__fp_zero>:
     ea8:	e8 94       	clt

00000eaa <__fp_szero>:
     eaa:	bb 27       	eor	r27, r27
     eac:	66 27       	eor	r22, r22
     eae:	77 27       	eor	r23, r23
     eb0:	cb 01       	movw	r24, r22
     eb2:	97 f9       	bld	r25, 7
     eb4:	08 95       	ret

00000eb6 <__gesf2>:
     eb6:	8a df       	rcall	.-236    	; 0xdcc <__fp_cmp>
     eb8:	08 f4       	brcc	.+2      	; 0xebc <__gesf2+0x6>
     eba:	8f ef       	ldi	r24, 0xFF	; 255
     ebc:	08 95       	ret

00000ebe <__mulsf3>:
     ebe:	0b d0       	rcall	.+22     	; 0xed6 <__mulsf3x>
     ec0:	c0 cf       	rjmp	.-128    	; 0xe42 <__fp_round>
     ec2:	b1 df       	rcall	.-158    	; 0xe26 <__fp_pscA>
     ec4:	28 f0       	brcs	.+10     	; 0xed0 <__mulsf3+0x12>
     ec6:	b6 df       	rcall	.-148    	; 0xe34 <__fp_pscB>
     ec8:	18 f0       	brcs	.+6      	; 0xed0 <__mulsf3+0x12>
     eca:	95 23       	and	r25, r21
     ecc:	09 f0       	breq	.+2      	; 0xed0 <__mulsf3+0x12>
     ece:	a2 cf       	rjmp	.-188    	; 0xe14 <__fp_inf>
     ed0:	a7 cf       	rjmp	.-178    	; 0xe20 <__fp_nan>
     ed2:	11 24       	eor	r1, r1
     ed4:	ea cf       	rjmp	.-44     	; 0xeaa <__fp_szero>

00000ed6 <__mulsf3x>:
     ed6:	c6 df       	rcall	.-116    	; 0xe64 <__fp_split3>
     ed8:	a0 f3       	brcs	.-24     	; 0xec2 <__mulsf3+0x4>

00000eda <__mulsf3_pse>:
     eda:	95 9f       	mul	r25, r21
     edc:	d1 f3       	breq	.-12     	; 0xed2 <__mulsf3+0x14>
     ede:	95 0f       	add	r25, r21
     ee0:	50 e0       	ldi	r21, 0x00	; 0
     ee2:	55 1f       	adc	r21, r21
     ee4:	62 9f       	mul	r22, r18
     ee6:	f0 01       	movw	r30, r0
     ee8:	72 9f       	mul	r23, r18
     eea:	bb 27       	eor	r27, r27
     eec:	f0 0d       	add	r31, r0
     eee:	b1 1d       	adc	r27, r1
     ef0:	63 9f       	mul	r22, r19
     ef2:	aa 27       	eor	r26, r26
     ef4:	f0 0d       	add	r31, r0
     ef6:	b1 1d       	adc	r27, r1
     ef8:	aa 1f       	adc	r26, r26
     efa:	64 9f       	mul	r22, r20
     efc:	66 27       	eor	r22, r22
     efe:	b0 0d       	add	r27, r0
     f00:	a1 1d       	adc	r26, r1
     f02:	66 1f       	adc	r22, r22
     f04:	82 9f       	mul	r24, r18
     f06:	22 27       	eor	r18, r18
     f08:	b0 0d       	add	r27, r0
     f0a:	a1 1d       	adc	r26, r1
     f0c:	62 1f       	adc	r22, r18
     f0e:	73 9f       	mul	r23, r19
     f10:	b0 0d       	add	r27, r0
     f12:	a1 1d       	adc	r26, r1
     f14:	62 1f       	adc	r22, r18
     f16:	83 9f       	mul	r24, r19
     f18:	a0 0d       	add	r26, r0
     f1a:	61 1d       	adc	r22, r1
     f1c:	22 1f       	adc	r18, r18
     f1e:	74 9f       	mul	r23, r20
     f20:	33 27       	eor	r19, r19
     f22:	a0 0d       	add	r26, r0
     f24:	61 1d       	adc	r22, r1
     f26:	23 1f       	adc	r18, r19
     f28:	84 9f       	mul	r24, r20
     f2a:	60 0d       	add	r22, r0
     f2c:	21 1d       	adc	r18, r1
     f2e:	82 2f       	mov	r24, r18
     f30:	76 2f       	mov	r23, r22
     f32:	6a 2f       	mov	r22, r26
     f34:	11 24       	eor	r1, r1
     f36:	9f 57       	subi	r25, 0x7F	; 127
     f38:	50 40       	sbci	r21, 0x00	; 0
     f3a:	8a f0       	brmi	.+34     	; 0xf5e <__mulsf3_pse+0x84>
     f3c:	e1 f0       	breq	.+56     	; 0xf76 <__mulsf3_pse+0x9c>
     f3e:	88 23       	and	r24, r24
     f40:	4a f0       	brmi	.+18     	; 0xf54 <__mulsf3_pse+0x7a>
     f42:	ee 0f       	add	r30, r30
     f44:	ff 1f       	adc	r31, r31
     f46:	bb 1f       	adc	r27, r27
     f48:	66 1f       	adc	r22, r22
     f4a:	77 1f       	adc	r23, r23
     f4c:	88 1f       	adc	r24, r24
     f4e:	91 50       	subi	r25, 0x01	; 1
     f50:	50 40       	sbci	r21, 0x00	; 0
     f52:	a9 f7       	brne	.-22     	; 0xf3e <__mulsf3_pse+0x64>
     f54:	9e 3f       	cpi	r25, 0xFE	; 254
     f56:	51 05       	cpc	r21, r1
     f58:	70 f0       	brcs	.+28     	; 0xf76 <__mulsf3_pse+0x9c>
     f5a:	5c cf       	rjmp	.-328    	; 0xe14 <__fp_inf>
     f5c:	a6 cf       	rjmp	.-180    	; 0xeaa <__fp_szero>
     f5e:	5f 3f       	cpi	r21, 0xFF	; 255
     f60:	ec f3       	brlt	.-6      	; 0xf5c <__mulsf3_pse+0x82>
     f62:	98 3e       	cpi	r25, 0xE8	; 232
     f64:	dc f3       	brlt	.-10     	; 0xf5c <__mulsf3_pse+0x82>
     f66:	86 95       	lsr	r24
     f68:	77 95       	ror	r23
     f6a:	67 95       	ror	r22
     f6c:	b7 95       	ror	r27
     f6e:	f7 95       	ror	r31
     f70:	e7 95       	ror	r30
     f72:	9f 5f       	subi	r25, 0xFF	; 255
     f74:	c1 f7       	brne	.-16     	; 0xf66 <__mulsf3_pse+0x8c>
     f76:	fe 2b       	or	r31, r30
     f78:	88 0f       	add	r24, r24
     f7a:	91 1d       	adc	r25, r1
     f7c:	96 95       	lsr	r25
     f7e:	87 95       	ror	r24
     f80:	97 f9       	bld	r25, 7
     f82:	08 95       	ret

00000f84 <sprintf>:
     f84:	0f 93       	push	r16
     f86:	1f 93       	push	r17
     f88:	cf 93       	push	r28
     f8a:	df 93       	push	r29
     f8c:	cd b7       	in	r28, 0x3d	; 61
     f8e:	de b7       	in	r29, 0x3e	; 62
     f90:	2e 97       	sbiw	r28, 0x0e	; 14
     f92:	0f b6       	in	r0, 0x3f	; 63
     f94:	f8 94       	cli
     f96:	de bf       	out	0x3e, r29	; 62
     f98:	0f be       	out	0x3f, r0	; 63
     f9a:	cd bf       	out	0x3d, r28	; 61
     f9c:	0e 89       	ldd	r16, Y+22	; 0x16
     f9e:	1f 89       	ldd	r17, Y+23	; 0x17
     fa0:	86 e0       	ldi	r24, 0x06	; 6
     fa2:	8c 83       	std	Y+4, r24	; 0x04
     fa4:	1a 83       	std	Y+2, r17	; 0x02
     fa6:	09 83       	std	Y+1, r16	; 0x01
     fa8:	8f ef       	ldi	r24, 0xFF	; 255
     faa:	9f e7       	ldi	r25, 0x7F	; 127
     fac:	9e 83       	std	Y+6, r25	; 0x06
     fae:	8d 83       	std	Y+5, r24	; 0x05
     fb0:	ae 01       	movw	r20, r28
     fb2:	46 5e       	subi	r20, 0xE6	; 230
     fb4:	5f 4f       	sbci	r21, 0xFF	; 255
     fb6:	68 8d       	ldd	r22, Y+24	; 0x18
     fb8:	79 8d       	ldd	r23, Y+25	; 0x19
     fba:	ce 01       	movw	r24, r28
     fbc:	01 96       	adiw	r24, 0x01	; 1
     fbe:	10 d0       	rcall	.+32     	; 0xfe0 <vfprintf>
     fc0:	ef 81       	ldd	r30, Y+7	; 0x07
     fc2:	f8 85       	ldd	r31, Y+8	; 0x08
     fc4:	e0 0f       	add	r30, r16
     fc6:	f1 1f       	adc	r31, r17
     fc8:	10 82       	st	Z, r1
     fca:	2e 96       	adiw	r28, 0x0e	; 14
     fcc:	0f b6       	in	r0, 0x3f	; 63
     fce:	f8 94       	cli
     fd0:	de bf       	out	0x3e, r29	; 62
     fd2:	0f be       	out	0x3f, r0	; 63
     fd4:	cd bf       	out	0x3d, r28	; 61
     fd6:	df 91       	pop	r29
     fd8:	cf 91       	pop	r28
     fda:	1f 91       	pop	r17
     fdc:	0f 91       	pop	r16
     fde:	08 95       	ret

00000fe0 <vfprintf>:
     fe0:	2f 92       	push	r2
     fe2:	3f 92       	push	r3
     fe4:	4f 92       	push	r4
     fe6:	5f 92       	push	r5
     fe8:	6f 92       	push	r6
     fea:	7f 92       	push	r7
     fec:	8f 92       	push	r8
     fee:	9f 92       	push	r9
     ff0:	af 92       	push	r10
     ff2:	bf 92       	push	r11
     ff4:	cf 92       	push	r12
     ff6:	df 92       	push	r13
     ff8:	ef 92       	push	r14
     ffa:	ff 92       	push	r15
     ffc:	0f 93       	push	r16
     ffe:	1f 93       	push	r17
    1000:	cf 93       	push	r28
    1002:	df 93       	push	r29
    1004:	cd b7       	in	r28, 0x3d	; 61
    1006:	de b7       	in	r29, 0x3e	; 62
    1008:	2b 97       	sbiw	r28, 0x0b	; 11
    100a:	0f b6       	in	r0, 0x3f	; 63
    100c:	f8 94       	cli
    100e:	de bf       	out	0x3e, r29	; 62
    1010:	0f be       	out	0x3f, r0	; 63
    1012:	cd bf       	out	0x3d, r28	; 61
    1014:	6c 01       	movw	r12, r24
    1016:	7b 01       	movw	r14, r22
    1018:	8a 01       	movw	r16, r20
    101a:	fc 01       	movw	r30, r24
    101c:	17 82       	std	Z+7, r1	; 0x07
    101e:	16 82       	std	Z+6, r1	; 0x06
    1020:	83 81       	ldd	r24, Z+3	; 0x03
    1022:	81 ff       	sbrs	r24, 1
    1024:	bf c1       	rjmp	.+894    	; 0x13a4 <__EEPROM_REGION_LENGTH__+0x3a4>
    1026:	ce 01       	movw	r24, r28
    1028:	01 96       	adiw	r24, 0x01	; 1
    102a:	3c 01       	movw	r6, r24
    102c:	f6 01       	movw	r30, r12
    102e:	93 81       	ldd	r25, Z+3	; 0x03
    1030:	f7 01       	movw	r30, r14
    1032:	93 fd       	sbrc	r25, 3
    1034:	85 91       	lpm	r24, Z+
    1036:	93 ff       	sbrs	r25, 3
    1038:	81 91       	ld	r24, Z+
    103a:	7f 01       	movw	r14, r30
    103c:	88 23       	and	r24, r24
    103e:	09 f4       	brne	.+2      	; 0x1042 <__EEPROM_REGION_LENGTH__+0x42>
    1040:	ad c1       	rjmp	.+858    	; 0x139c <__EEPROM_REGION_LENGTH__+0x39c>
    1042:	85 32       	cpi	r24, 0x25	; 37
    1044:	39 f4       	brne	.+14     	; 0x1054 <__EEPROM_REGION_LENGTH__+0x54>
    1046:	93 fd       	sbrc	r25, 3
    1048:	85 91       	lpm	r24, Z+
    104a:	93 ff       	sbrs	r25, 3
    104c:	81 91       	ld	r24, Z+
    104e:	7f 01       	movw	r14, r30
    1050:	85 32       	cpi	r24, 0x25	; 37
    1052:	21 f4       	brne	.+8      	; 0x105c <__EEPROM_REGION_LENGTH__+0x5c>
    1054:	b6 01       	movw	r22, r12
    1056:	90 e0       	ldi	r25, 0x00	; 0
    1058:	d6 d1       	rcall	.+940    	; 0x1406 <fputc>
    105a:	e8 cf       	rjmp	.-48     	; 0x102c <__EEPROM_REGION_LENGTH__+0x2c>
    105c:	91 2c       	mov	r9, r1
    105e:	21 2c       	mov	r2, r1
    1060:	31 2c       	mov	r3, r1
    1062:	ff e1       	ldi	r31, 0x1F	; 31
    1064:	f3 15       	cp	r31, r3
    1066:	d8 f0       	brcs	.+54     	; 0x109e <__EEPROM_REGION_LENGTH__+0x9e>
    1068:	8b 32       	cpi	r24, 0x2B	; 43
    106a:	79 f0       	breq	.+30     	; 0x108a <__EEPROM_REGION_LENGTH__+0x8a>
    106c:	38 f4       	brcc	.+14     	; 0x107c <__EEPROM_REGION_LENGTH__+0x7c>
    106e:	80 32       	cpi	r24, 0x20	; 32
    1070:	79 f0       	breq	.+30     	; 0x1090 <__EEPROM_REGION_LENGTH__+0x90>
    1072:	83 32       	cpi	r24, 0x23	; 35
    1074:	a1 f4       	brne	.+40     	; 0x109e <__EEPROM_REGION_LENGTH__+0x9e>
    1076:	23 2d       	mov	r18, r3
    1078:	20 61       	ori	r18, 0x10	; 16
    107a:	1d c0       	rjmp	.+58     	; 0x10b6 <__EEPROM_REGION_LENGTH__+0xb6>
    107c:	8d 32       	cpi	r24, 0x2D	; 45
    107e:	61 f0       	breq	.+24     	; 0x1098 <__EEPROM_REGION_LENGTH__+0x98>
    1080:	80 33       	cpi	r24, 0x30	; 48
    1082:	69 f4       	brne	.+26     	; 0x109e <__EEPROM_REGION_LENGTH__+0x9e>
    1084:	23 2d       	mov	r18, r3
    1086:	21 60       	ori	r18, 0x01	; 1
    1088:	16 c0       	rjmp	.+44     	; 0x10b6 <__EEPROM_REGION_LENGTH__+0xb6>
    108a:	83 2d       	mov	r24, r3
    108c:	82 60       	ori	r24, 0x02	; 2
    108e:	38 2e       	mov	r3, r24
    1090:	e3 2d       	mov	r30, r3
    1092:	e4 60       	ori	r30, 0x04	; 4
    1094:	3e 2e       	mov	r3, r30
    1096:	2a c0       	rjmp	.+84     	; 0x10ec <__EEPROM_REGION_LENGTH__+0xec>
    1098:	f3 2d       	mov	r31, r3
    109a:	f8 60       	ori	r31, 0x08	; 8
    109c:	1d c0       	rjmp	.+58     	; 0x10d8 <__EEPROM_REGION_LENGTH__+0xd8>
    109e:	37 fc       	sbrc	r3, 7
    10a0:	2d c0       	rjmp	.+90     	; 0x10fc <__EEPROM_REGION_LENGTH__+0xfc>
    10a2:	20 ed       	ldi	r18, 0xD0	; 208
    10a4:	28 0f       	add	r18, r24
    10a6:	2a 30       	cpi	r18, 0x0A	; 10
    10a8:	40 f0       	brcs	.+16     	; 0x10ba <__EEPROM_REGION_LENGTH__+0xba>
    10aa:	8e 32       	cpi	r24, 0x2E	; 46
    10ac:	b9 f4       	brne	.+46     	; 0x10dc <__EEPROM_REGION_LENGTH__+0xdc>
    10ae:	36 fc       	sbrc	r3, 6
    10b0:	75 c1       	rjmp	.+746    	; 0x139c <__EEPROM_REGION_LENGTH__+0x39c>
    10b2:	23 2d       	mov	r18, r3
    10b4:	20 64       	ori	r18, 0x40	; 64
    10b6:	32 2e       	mov	r3, r18
    10b8:	19 c0       	rjmp	.+50     	; 0x10ec <__EEPROM_REGION_LENGTH__+0xec>
    10ba:	36 fe       	sbrs	r3, 6
    10bc:	06 c0       	rjmp	.+12     	; 0x10ca <__EEPROM_REGION_LENGTH__+0xca>
    10be:	8a e0       	ldi	r24, 0x0A	; 10
    10c0:	98 9e       	mul	r9, r24
    10c2:	20 0d       	add	r18, r0
    10c4:	11 24       	eor	r1, r1
    10c6:	92 2e       	mov	r9, r18
    10c8:	11 c0       	rjmp	.+34     	; 0x10ec <__EEPROM_REGION_LENGTH__+0xec>
    10ca:	ea e0       	ldi	r30, 0x0A	; 10
    10cc:	2e 9e       	mul	r2, r30
    10ce:	20 0d       	add	r18, r0
    10d0:	11 24       	eor	r1, r1
    10d2:	22 2e       	mov	r2, r18
    10d4:	f3 2d       	mov	r31, r3
    10d6:	f0 62       	ori	r31, 0x20	; 32
    10d8:	3f 2e       	mov	r3, r31
    10da:	08 c0       	rjmp	.+16     	; 0x10ec <__EEPROM_REGION_LENGTH__+0xec>
    10dc:	8c 36       	cpi	r24, 0x6C	; 108
    10de:	21 f4       	brne	.+8      	; 0x10e8 <__EEPROM_REGION_LENGTH__+0xe8>
    10e0:	83 2d       	mov	r24, r3
    10e2:	80 68       	ori	r24, 0x80	; 128
    10e4:	38 2e       	mov	r3, r24
    10e6:	02 c0       	rjmp	.+4      	; 0x10ec <__EEPROM_REGION_LENGTH__+0xec>
    10e8:	88 36       	cpi	r24, 0x68	; 104
    10ea:	41 f4       	brne	.+16     	; 0x10fc <__EEPROM_REGION_LENGTH__+0xfc>
    10ec:	f7 01       	movw	r30, r14
    10ee:	93 fd       	sbrc	r25, 3
    10f0:	85 91       	lpm	r24, Z+
    10f2:	93 ff       	sbrs	r25, 3
    10f4:	81 91       	ld	r24, Z+
    10f6:	7f 01       	movw	r14, r30
    10f8:	81 11       	cpse	r24, r1
    10fa:	b3 cf       	rjmp	.-154    	; 0x1062 <__EEPROM_REGION_LENGTH__+0x62>
    10fc:	98 2f       	mov	r25, r24
    10fe:	9f 7d       	andi	r25, 0xDF	; 223
    1100:	95 54       	subi	r25, 0x45	; 69
    1102:	93 30       	cpi	r25, 0x03	; 3
    1104:	28 f4       	brcc	.+10     	; 0x1110 <__EEPROM_REGION_LENGTH__+0x110>
    1106:	0c 5f       	subi	r16, 0xFC	; 252
    1108:	1f 4f       	sbci	r17, 0xFF	; 255
    110a:	9f e3       	ldi	r25, 0x3F	; 63
    110c:	99 83       	std	Y+1, r25	; 0x01
    110e:	0d c0       	rjmp	.+26     	; 0x112a <__EEPROM_REGION_LENGTH__+0x12a>
    1110:	83 36       	cpi	r24, 0x63	; 99
    1112:	31 f0       	breq	.+12     	; 0x1120 <__EEPROM_REGION_LENGTH__+0x120>
    1114:	83 37       	cpi	r24, 0x73	; 115
    1116:	71 f0       	breq	.+28     	; 0x1134 <__EEPROM_REGION_LENGTH__+0x134>
    1118:	83 35       	cpi	r24, 0x53	; 83
    111a:	09 f0       	breq	.+2      	; 0x111e <__EEPROM_REGION_LENGTH__+0x11e>
    111c:	55 c0       	rjmp	.+170    	; 0x11c8 <__EEPROM_REGION_LENGTH__+0x1c8>
    111e:	20 c0       	rjmp	.+64     	; 0x1160 <__EEPROM_REGION_LENGTH__+0x160>
    1120:	f8 01       	movw	r30, r16
    1122:	80 81       	ld	r24, Z
    1124:	89 83       	std	Y+1, r24	; 0x01
    1126:	0e 5f       	subi	r16, 0xFE	; 254
    1128:	1f 4f       	sbci	r17, 0xFF	; 255
    112a:	88 24       	eor	r8, r8
    112c:	83 94       	inc	r8
    112e:	91 2c       	mov	r9, r1
    1130:	53 01       	movw	r10, r6
    1132:	12 c0       	rjmp	.+36     	; 0x1158 <__EEPROM_REGION_LENGTH__+0x158>
    1134:	28 01       	movw	r4, r16
    1136:	f2 e0       	ldi	r31, 0x02	; 2
    1138:	4f 0e       	add	r4, r31
    113a:	51 1c       	adc	r5, r1
    113c:	f8 01       	movw	r30, r16
    113e:	a0 80       	ld	r10, Z
    1140:	b1 80       	ldd	r11, Z+1	; 0x01
    1142:	36 fe       	sbrs	r3, 6
    1144:	03 c0       	rjmp	.+6      	; 0x114c <__EEPROM_REGION_LENGTH__+0x14c>
    1146:	69 2d       	mov	r22, r9
    1148:	70 e0       	ldi	r23, 0x00	; 0
    114a:	02 c0       	rjmp	.+4      	; 0x1150 <__EEPROM_REGION_LENGTH__+0x150>
    114c:	6f ef       	ldi	r22, 0xFF	; 255
    114e:	7f ef       	ldi	r23, 0xFF	; 255
    1150:	c5 01       	movw	r24, r10
    1152:	4e d1       	rcall	.+668    	; 0x13f0 <strnlen>
    1154:	4c 01       	movw	r8, r24
    1156:	82 01       	movw	r16, r4
    1158:	f3 2d       	mov	r31, r3
    115a:	ff 77       	andi	r31, 0x7F	; 127
    115c:	3f 2e       	mov	r3, r31
    115e:	15 c0       	rjmp	.+42     	; 0x118a <__EEPROM_REGION_LENGTH__+0x18a>
    1160:	28 01       	movw	r4, r16
    1162:	22 e0       	ldi	r18, 0x02	; 2
    1164:	42 0e       	add	r4, r18
    1166:	51 1c       	adc	r5, r1
    1168:	f8 01       	movw	r30, r16
    116a:	a0 80       	ld	r10, Z
    116c:	b1 80       	ldd	r11, Z+1	; 0x01
    116e:	36 fe       	sbrs	r3, 6
    1170:	03 c0       	rjmp	.+6      	; 0x1178 <__EEPROM_REGION_LENGTH__+0x178>
    1172:	69 2d       	mov	r22, r9
    1174:	70 e0       	ldi	r23, 0x00	; 0
    1176:	02 c0       	rjmp	.+4      	; 0x117c <__EEPROM_REGION_LENGTH__+0x17c>
    1178:	6f ef       	ldi	r22, 0xFF	; 255
    117a:	7f ef       	ldi	r23, 0xFF	; 255
    117c:	c5 01       	movw	r24, r10
    117e:	2d d1       	rcall	.+602    	; 0x13da <strnlen_P>
    1180:	4c 01       	movw	r8, r24
    1182:	f3 2d       	mov	r31, r3
    1184:	f0 68       	ori	r31, 0x80	; 128
    1186:	3f 2e       	mov	r3, r31
    1188:	82 01       	movw	r16, r4
    118a:	33 fc       	sbrc	r3, 3
    118c:	19 c0       	rjmp	.+50     	; 0x11c0 <__EEPROM_REGION_LENGTH__+0x1c0>
    118e:	82 2d       	mov	r24, r2
    1190:	90 e0       	ldi	r25, 0x00	; 0
    1192:	88 16       	cp	r8, r24
    1194:	99 06       	cpc	r9, r25
    1196:	a0 f4       	brcc	.+40     	; 0x11c0 <__EEPROM_REGION_LENGTH__+0x1c0>
    1198:	b6 01       	movw	r22, r12
    119a:	80 e2       	ldi	r24, 0x20	; 32
    119c:	90 e0       	ldi	r25, 0x00	; 0
    119e:	33 d1       	rcall	.+614    	; 0x1406 <fputc>
    11a0:	2a 94       	dec	r2
    11a2:	f5 cf       	rjmp	.-22     	; 0x118e <__EEPROM_REGION_LENGTH__+0x18e>
    11a4:	f5 01       	movw	r30, r10
    11a6:	37 fc       	sbrc	r3, 7
    11a8:	85 91       	lpm	r24, Z+
    11aa:	37 fe       	sbrs	r3, 7
    11ac:	81 91       	ld	r24, Z+
    11ae:	5f 01       	movw	r10, r30
    11b0:	b6 01       	movw	r22, r12
    11b2:	90 e0       	ldi	r25, 0x00	; 0
    11b4:	28 d1       	rcall	.+592    	; 0x1406 <fputc>
    11b6:	21 10       	cpse	r2, r1
    11b8:	2a 94       	dec	r2
    11ba:	21 e0       	ldi	r18, 0x01	; 1
    11bc:	82 1a       	sub	r8, r18
    11be:	91 08       	sbc	r9, r1
    11c0:	81 14       	cp	r8, r1
    11c2:	91 04       	cpc	r9, r1
    11c4:	79 f7       	brne	.-34     	; 0x11a4 <__EEPROM_REGION_LENGTH__+0x1a4>
    11c6:	e1 c0       	rjmp	.+450    	; 0x138a <__EEPROM_REGION_LENGTH__+0x38a>
    11c8:	84 36       	cpi	r24, 0x64	; 100
    11ca:	11 f0       	breq	.+4      	; 0x11d0 <__EEPROM_REGION_LENGTH__+0x1d0>
    11cc:	89 36       	cpi	r24, 0x69	; 105
    11ce:	39 f5       	brne	.+78     	; 0x121e <__EEPROM_REGION_LENGTH__+0x21e>
    11d0:	f8 01       	movw	r30, r16
    11d2:	37 fe       	sbrs	r3, 7
    11d4:	07 c0       	rjmp	.+14     	; 0x11e4 <__EEPROM_REGION_LENGTH__+0x1e4>
    11d6:	60 81       	ld	r22, Z
    11d8:	71 81       	ldd	r23, Z+1	; 0x01
    11da:	82 81       	ldd	r24, Z+2	; 0x02
    11dc:	93 81       	ldd	r25, Z+3	; 0x03
    11de:	0c 5f       	subi	r16, 0xFC	; 252
    11e0:	1f 4f       	sbci	r17, 0xFF	; 255
    11e2:	08 c0       	rjmp	.+16     	; 0x11f4 <__EEPROM_REGION_LENGTH__+0x1f4>
    11e4:	60 81       	ld	r22, Z
    11e6:	71 81       	ldd	r23, Z+1	; 0x01
    11e8:	07 2e       	mov	r0, r23
    11ea:	00 0c       	add	r0, r0
    11ec:	88 0b       	sbc	r24, r24
    11ee:	99 0b       	sbc	r25, r25
    11f0:	0e 5f       	subi	r16, 0xFE	; 254
    11f2:	1f 4f       	sbci	r17, 0xFF	; 255
    11f4:	f3 2d       	mov	r31, r3
    11f6:	ff 76       	andi	r31, 0x6F	; 111
    11f8:	3f 2e       	mov	r3, r31
    11fa:	97 ff       	sbrs	r25, 7
    11fc:	09 c0       	rjmp	.+18     	; 0x1210 <__EEPROM_REGION_LENGTH__+0x210>
    11fe:	90 95       	com	r25
    1200:	80 95       	com	r24
    1202:	70 95       	com	r23
    1204:	61 95       	neg	r22
    1206:	7f 4f       	sbci	r23, 0xFF	; 255
    1208:	8f 4f       	sbci	r24, 0xFF	; 255
    120a:	9f 4f       	sbci	r25, 0xFF	; 255
    120c:	f0 68       	ori	r31, 0x80	; 128
    120e:	3f 2e       	mov	r3, r31
    1210:	2a e0       	ldi	r18, 0x0A	; 10
    1212:	30 e0       	ldi	r19, 0x00	; 0
    1214:	a3 01       	movw	r20, r6
    1216:	33 d1       	rcall	.+614    	; 0x147e <__ultoa_invert>
    1218:	88 2e       	mov	r8, r24
    121a:	86 18       	sub	r8, r6
    121c:	44 c0       	rjmp	.+136    	; 0x12a6 <__EEPROM_REGION_LENGTH__+0x2a6>
    121e:	85 37       	cpi	r24, 0x75	; 117
    1220:	31 f4       	brne	.+12     	; 0x122e <__EEPROM_REGION_LENGTH__+0x22e>
    1222:	23 2d       	mov	r18, r3
    1224:	2f 7e       	andi	r18, 0xEF	; 239
    1226:	b2 2e       	mov	r11, r18
    1228:	2a e0       	ldi	r18, 0x0A	; 10
    122a:	30 e0       	ldi	r19, 0x00	; 0
    122c:	25 c0       	rjmp	.+74     	; 0x1278 <__EEPROM_REGION_LENGTH__+0x278>
    122e:	93 2d       	mov	r25, r3
    1230:	99 7f       	andi	r25, 0xF9	; 249
    1232:	b9 2e       	mov	r11, r25
    1234:	8f 36       	cpi	r24, 0x6F	; 111
    1236:	c1 f0       	breq	.+48     	; 0x1268 <__EEPROM_REGION_LENGTH__+0x268>
    1238:	18 f4       	brcc	.+6      	; 0x1240 <__EEPROM_REGION_LENGTH__+0x240>
    123a:	88 35       	cpi	r24, 0x58	; 88
    123c:	79 f0       	breq	.+30     	; 0x125c <__EEPROM_REGION_LENGTH__+0x25c>
    123e:	ae c0       	rjmp	.+348    	; 0x139c <__EEPROM_REGION_LENGTH__+0x39c>
    1240:	80 37       	cpi	r24, 0x70	; 112
    1242:	19 f0       	breq	.+6      	; 0x124a <__EEPROM_REGION_LENGTH__+0x24a>
    1244:	88 37       	cpi	r24, 0x78	; 120
    1246:	21 f0       	breq	.+8      	; 0x1250 <__EEPROM_REGION_LENGTH__+0x250>
    1248:	a9 c0       	rjmp	.+338    	; 0x139c <__EEPROM_REGION_LENGTH__+0x39c>
    124a:	e9 2f       	mov	r30, r25
    124c:	e0 61       	ori	r30, 0x10	; 16
    124e:	be 2e       	mov	r11, r30
    1250:	b4 fe       	sbrs	r11, 4
    1252:	0d c0       	rjmp	.+26     	; 0x126e <__EEPROM_REGION_LENGTH__+0x26e>
    1254:	fb 2d       	mov	r31, r11
    1256:	f4 60       	ori	r31, 0x04	; 4
    1258:	bf 2e       	mov	r11, r31
    125a:	09 c0       	rjmp	.+18     	; 0x126e <__EEPROM_REGION_LENGTH__+0x26e>
    125c:	34 fe       	sbrs	r3, 4
    125e:	0a c0       	rjmp	.+20     	; 0x1274 <__EEPROM_REGION_LENGTH__+0x274>
    1260:	29 2f       	mov	r18, r25
    1262:	26 60       	ori	r18, 0x06	; 6
    1264:	b2 2e       	mov	r11, r18
    1266:	06 c0       	rjmp	.+12     	; 0x1274 <__EEPROM_REGION_LENGTH__+0x274>
    1268:	28 e0       	ldi	r18, 0x08	; 8
    126a:	30 e0       	ldi	r19, 0x00	; 0
    126c:	05 c0       	rjmp	.+10     	; 0x1278 <__EEPROM_REGION_LENGTH__+0x278>
    126e:	20 e1       	ldi	r18, 0x10	; 16
    1270:	30 e0       	ldi	r19, 0x00	; 0
    1272:	02 c0       	rjmp	.+4      	; 0x1278 <__EEPROM_REGION_LENGTH__+0x278>
    1274:	20 e1       	ldi	r18, 0x10	; 16
    1276:	32 e0       	ldi	r19, 0x02	; 2
    1278:	f8 01       	movw	r30, r16
    127a:	b7 fe       	sbrs	r11, 7
    127c:	07 c0       	rjmp	.+14     	; 0x128c <__EEPROM_REGION_LENGTH__+0x28c>
    127e:	60 81       	ld	r22, Z
    1280:	71 81       	ldd	r23, Z+1	; 0x01
    1282:	82 81       	ldd	r24, Z+2	; 0x02
    1284:	93 81       	ldd	r25, Z+3	; 0x03
    1286:	0c 5f       	subi	r16, 0xFC	; 252
    1288:	1f 4f       	sbci	r17, 0xFF	; 255
    128a:	06 c0       	rjmp	.+12     	; 0x1298 <__EEPROM_REGION_LENGTH__+0x298>
    128c:	60 81       	ld	r22, Z
    128e:	71 81       	ldd	r23, Z+1	; 0x01
    1290:	80 e0       	ldi	r24, 0x00	; 0
    1292:	90 e0       	ldi	r25, 0x00	; 0
    1294:	0e 5f       	subi	r16, 0xFE	; 254
    1296:	1f 4f       	sbci	r17, 0xFF	; 255
    1298:	a3 01       	movw	r20, r6
    129a:	f1 d0       	rcall	.+482    	; 0x147e <__ultoa_invert>
    129c:	88 2e       	mov	r8, r24
    129e:	86 18       	sub	r8, r6
    12a0:	fb 2d       	mov	r31, r11
    12a2:	ff 77       	andi	r31, 0x7F	; 127
    12a4:	3f 2e       	mov	r3, r31
    12a6:	36 fe       	sbrs	r3, 6
    12a8:	0d c0       	rjmp	.+26     	; 0x12c4 <__EEPROM_REGION_LENGTH__+0x2c4>
    12aa:	23 2d       	mov	r18, r3
    12ac:	2e 7f       	andi	r18, 0xFE	; 254
    12ae:	a2 2e       	mov	r10, r18
    12b0:	89 14       	cp	r8, r9
    12b2:	58 f4       	brcc	.+22     	; 0x12ca <__EEPROM_REGION_LENGTH__+0x2ca>
    12b4:	34 fe       	sbrs	r3, 4
    12b6:	0b c0       	rjmp	.+22     	; 0x12ce <__EEPROM_REGION_LENGTH__+0x2ce>
    12b8:	32 fc       	sbrc	r3, 2
    12ba:	09 c0       	rjmp	.+18     	; 0x12ce <__EEPROM_REGION_LENGTH__+0x2ce>
    12bc:	83 2d       	mov	r24, r3
    12be:	8e 7e       	andi	r24, 0xEE	; 238
    12c0:	a8 2e       	mov	r10, r24
    12c2:	05 c0       	rjmp	.+10     	; 0x12ce <__EEPROM_REGION_LENGTH__+0x2ce>
    12c4:	b8 2c       	mov	r11, r8
    12c6:	a3 2c       	mov	r10, r3
    12c8:	03 c0       	rjmp	.+6      	; 0x12d0 <__EEPROM_REGION_LENGTH__+0x2d0>
    12ca:	b8 2c       	mov	r11, r8
    12cc:	01 c0       	rjmp	.+2      	; 0x12d0 <__EEPROM_REGION_LENGTH__+0x2d0>
    12ce:	b9 2c       	mov	r11, r9
    12d0:	a4 fe       	sbrs	r10, 4
    12d2:	0f c0       	rjmp	.+30     	; 0x12f2 <__EEPROM_REGION_LENGTH__+0x2f2>
    12d4:	fe 01       	movw	r30, r28
    12d6:	e8 0d       	add	r30, r8
    12d8:	f1 1d       	adc	r31, r1
    12da:	80 81       	ld	r24, Z
    12dc:	80 33       	cpi	r24, 0x30	; 48
    12de:	21 f4       	brne	.+8      	; 0x12e8 <__EEPROM_REGION_LENGTH__+0x2e8>
    12e0:	9a 2d       	mov	r25, r10
    12e2:	99 7e       	andi	r25, 0xE9	; 233
    12e4:	a9 2e       	mov	r10, r25
    12e6:	09 c0       	rjmp	.+18     	; 0x12fa <__EEPROM_REGION_LENGTH__+0x2fa>
    12e8:	a2 fe       	sbrs	r10, 2
    12ea:	06 c0       	rjmp	.+12     	; 0x12f8 <__EEPROM_REGION_LENGTH__+0x2f8>
    12ec:	b3 94       	inc	r11
    12ee:	b3 94       	inc	r11
    12f0:	04 c0       	rjmp	.+8      	; 0x12fa <__EEPROM_REGION_LENGTH__+0x2fa>
    12f2:	8a 2d       	mov	r24, r10
    12f4:	86 78       	andi	r24, 0x86	; 134
    12f6:	09 f0       	breq	.+2      	; 0x12fa <__EEPROM_REGION_LENGTH__+0x2fa>
    12f8:	b3 94       	inc	r11
    12fa:	a3 fc       	sbrc	r10, 3
    12fc:	10 c0       	rjmp	.+32     	; 0x131e <__EEPROM_REGION_LENGTH__+0x31e>
    12fe:	a0 fe       	sbrs	r10, 0
    1300:	06 c0       	rjmp	.+12     	; 0x130e <__EEPROM_REGION_LENGTH__+0x30e>
    1302:	b2 14       	cp	r11, r2
    1304:	80 f4       	brcc	.+32     	; 0x1326 <__EEPROM_REGION_LENGTH__+0x326>
    1306:	28 0c       	add	r2, r8
    1308:	92 2c       	mov	r9, r2
    130a:	9b 18       	sub	r9, r11
    130c:	0d c0       	rjmp	.+26     	; 0x1328 <__EEPROM_REGION_LENGTH__+0x328>
    130e:	b2 14       	cp	r11, r2
    1310:	58 f4       	brcc	.+22     	; 0x1328 <__EEPROM_REGION_LENGTH__+0x328>
    1312:	b6 01       	movw	r22, r12
    1314:	80 e2       	ldi	r24, 0x20	; 32
    1316:	90 e0       	ldi	r25, 0x00	; 0
    1318:	76 d0       	rcall	.+236    	; 0x1406 <fputc>
    131a:	b3 94       	inc	r11
    131c:	f8 cf       	rjmp	.-16     	; 0x130e <__EEPROM_REGION_LENGTH__+0x30e>
    131e:	b2 14       	cp	r11, r2
    1320:	18 f4       	brcc	.+6      	; 0x1328 <__EEPROM_REGION_LENGTH__+0x328>
    1322:	2b 18       	sub	r2, r11
    1324:	02 c0       	rjmp	.+4      	; 0x132a <__EEPROM_REGION_LENGTH__+0x32a>
    1326:	98 2c       	mov	r9, r8
    1328:	21 2c       	mov	r2, r1
    132a:	a4 fe       	sbrs	r10, 4
    132c:	0f c0       	rjmp	.+30     	; 0x134c <__EEPROM_REGION_LENGTH__+0x34c>
    132e:	b6 01       	movw	r22, r12
    1330:	80 e3       	ldi	r24, 0x30	; 48
    1332:	90 e0       	ldi	r25, 0x00	; 0
    1334:	68 d0       	rcall	.+208    	; 0x1406 <fputc>
    1336:	a2 fe       	sbrs	r10, 2
    1338:	16 c0       	rjmp	.+44     	; 0x1366 <__EEPROM_REGION_LENGTH__+0x366>
    133a:	a1 fc       	sbrc	r10, 1
    133c:	03 c0       	rjmp	.+6      	; 0x1344 <__EEPROM_REGION_LENGTH__+0x344>
    133e:	88 e7       	ldi	r24, 0x78	; 120
    1340:	90 e0       	ldi	r25, 0x00	; 0
    1342:	02 c0       	rjmp	.+4      	; 0x1348 <__EEPROM_REGION_LENGTH__+0x348>
    1344:	88 e5       	ldi	r24, 0x58	; 88
    1346:	90 e0       	ldi	r25, 0x00	; 0
    1348:	b6 01       	movw	r22, r12
    134a:	0c c0       	rjmp	.+24     	; 0x1364 <__EEPROM_REGION_LENGTH__+0x364>
    134c:	8a 2d       	mov	r24, r10
    134e:	86 78       	andi	r24, 0x86	; 134
    1350:	51 f0       	breq	.+20     	; 0x1366 <__EEPROM_REGION_LENGTH__+0x366>
    1352:	a1 fe       	sbrs	r10, 1
    1354:	02 c0       	rjmp	.+4      	; 0x135a <__EEPROM_REGION_LENGTH__+0x35a>
    1356:	8b e2       	ldi	r24, 0x2B	; 43
    1358:	01 c0       	rjmp	.+2      	; 0x135c <__EEPROM_REGION_LENGTH__+0x35c>
    135a:	80 e2       	ldi	r24, 0x20	; 32
    135c:	a7 fc       	sbrc	r10, 7
    135e:	8d e2       	ldi	r24, 0x2D	; 45
    1360:	b6 01       	movw	r22, r12
    1362:	90 e0       	ldi	r25, 0x00	; 0
    1364:	50 d0       	rcall	.+160    	; 0x1406 <fputc>
    1366:	89 14       	cp	r8, r9
    1368:	30 f4       	brcc	.+12     	; 0x1376 <__EEPROM_REGION_LENGTH__+0x376>
    136a:	b6 01       	movw	r22, r12
    136c:	80 e3       	ldi	r24, 0x30	; 48
    136e:	90 e0       	ldi	r25, 0x00	; 0
    1370:	4a d0       	rcall	.+148    	; 0x1406 <fputc>
    1372:	9a 94       	dec	r9
    1374:	f8 cf       	rjmp	.-16     	; 0x1366 <__EEPROM_REGION_LENGTH__+0x366>
    1376:	8a 94       	dec	r8
    1378:	f3 01       	movw	r30, r6
    137a:	e8 0d       	add	r30, r8
    137c:	f1 1d       	adc	r31, r1
    137e:	80 81       	ld	r24, Z
    1380:	b6 01       	movw	r22, r12
    1382:	90 e0       	ldi	r25, 0x00	; 0
    1384:	40 d0       	rcall	.+128    	; 0x1406 <fputc>
    1386:	81 10       	cpse	r8, r1
    1388:	f6 cf       	rjmp	.-20     	; 0x1376 <__EEPROM_REGION_LENGTH__+0x376>
    138a:	22 20       	and	r2, r2
    138c:	09 f4       	brne	.+2      	; 0x1390 <__EEPROM_REGION_LENGTH__+0x390>
    138e:	4e ce       	rjmp	.-868    	; 0x102c <__EEPROM_REGION_LENGTH__+0x2c>
    1390:	b6 01       	movw	r22, r12
    1392:	80 e2       	ldi	r24, 0x20	; 32
    1394:	90 e0       	ldi	r25, 0x00	; 0
    1396:	37 d0       	rcall	.+110    	; 0x1406 <fputc>
    1398:	2a 94       	dec	r2
    139a:	f7 cf       	rjmp	.-18     	; 0x138a <__EEPROM_REGION_LENGTH__+0x38a>
    139c:	f6 01       	movw	r30, r12
    139e:	86 81       	ldd	r24, Z+6	; 0x06
    13a0:	97 81       	ldd	r25, Z+7	; 0x07
    13a2:	02 c0       	rjmp	.+4      	; 0x13a8 <__EEPROM_REGION_LENGTH__+0x3a8>
    13a4:	8f ef       	ldi	r24, 0xFF	; 255
    13a6:	9f ef       	ldi	r25, 0xFF	; 255
    13a8:	2b 96       	adiw	r28, 0x0b	; 11
    13aa:	0f b6       	in	r0, 0x3f	; 63
    13ac:	f8 94       	cli
    13ae:	de bf       	out	0x3e, r29	; 62
    13b0:	0f be       	out	0x3f, r0	; 63
    13b2:	cd bf       	out	0x3d, r28	; 61
    13b4:	df 91       	pop	r29
    13b6:	cf 91       	pop	r28
    13b8:	1f 91       	pop	r17
    13ba:	0f 91       	pop	r16
    13bc:	ff 90       	pop	r15
    13be:	ef 90       	pop	r14
    13c0:	df 90       	pop	r13
    13c2:	cf 90       	pop	r12
    13c4:	bf 90       	pop	r11
    13c6:	af 90       	pop	r10
    13c8:	9f 90       	pop	r9
    13ca:	8f 90       	pop	r8
    13cc:	7f 90       	pop	r7
    13ce:	6f 90       	pop	r6
    13d0:	5f 90       	pop	r5
    13d2:	4f 90       	pop	r4
    13d4:	3f 90       	pop	r3
    13d6:	2f 90       	pop	r2
    13d8:	08 95       	ret

000013da <strnlen_P>:
    13da:	fc 01       	movw	r30, r24
    13dc:	05 90       	lpm	r0, Z+
    13de:	61 50       	subi	r22, 0x01	; 1
    13e0:	70 40       	sbci	r23, 0x00	; 0
    13e2:	01 10       	cpse	r0, r1
    13e4:	d8 f7       	brcc	.-10     	; 0x13dc <strnlen_P+0x2>
    13e6:	80 95       	com	r24
    13e8:	90 95       	com	r25
    13ea:	8e 0f       	add	r24, r30
    13ec:	9f 1f       	adc	r25, r31
    13ee:	08 95       	ret

000013f0 <strnlen>:
    13f0:	fc 01       	movw	r30, r24
    13f2:	61 50       	subi	r22, 0x01	; 1
    13f4:	70 40       	sbci	r23, 0x00	; 0
    13f6:	01 90       	ld	r0, Z+
    13f8:	01 10       	cpse	r0, r1
    13fa:	d8 f7       	brcc	.-10     	; 0x13f2 <strnlen+0x2>
    13fc:	80 95       	com	r24
    13fe:	90 95       	com	r25
    1400:	8e 0f       	add	r24, r30
    1402:	9f 1f       	adc	r25, r31
    1404:	08 95       	ret

00001406 <fputc>:
    1406:	0f 93       	push	r16
    1408:	1f 93       	push	r17
    140a:	cf 93       	push	r28
    140c:	df 93       	push	r29
    140e:	fb 01       	movw	r30, r22
    1410:	23 81       	ldd	r18, Z+3	; 0x03
    1412:	21 fd       	sbrc	r18, 1
    1414:	03 c0       	rjmp	.+6      	; 0x141c <fputc+0x16>
    1416:	8f ef       	ldi	r24, 0xFF	; 255
    1418:	9f ef       	ldi	r25, 0xFF	; 255
    141a:	2c c0       	rjmp	.+88     	; 0x1474 <fputc+0x6e>
    141c:	22 ff       	sbrs	r18, 2
    141e:	16 c0       	rjmp	.+44     	; 0x144c <fputc+0x46>
    1420:	46 81       	ldd	r20, Z+6	; 0x06
    1422:	57 81       	ldd	r21, Z+7	; 0x07
    1424:	24 81       	ldd	r18, Z+4	; 0x04
    1426:	35 81       	ldd	r19, Z+5	; 0x05
    1428:	42 17       	cp	r20, r18
    142a:	53 07       	cpc	r21, r19
    142c:	44 f4       	brge	.+16     	; 0x143e <fputc+0x38>
    142e:	a0 81       	ld	r26, Z
    1430:	b1 81       	ldd	r27, Z+1	; 0x01
    1432:	9d 01       	movw	r18, r26
    1434:	2f 5f       	subi	r18, 0xFF	; 255
    1436:	3f 4f       	sbci	r19, 0xFF	; 255
    1438:	31 83       	std	Z+1, r19	; 0x01
    143a:	20 83       	st	Z, r18
    143c:	8c 93       	st	X, r24
    143e:	26 81       	ldd	r18, Z+6	; 0x06
    1440:	37 81       	ldd	r19, Z+7	; 0x07
    1442:	2f 5f       	subi	r18, 0xFF	; 255
    1444:	3f 4f       	sbci	r19, 0xFF	; 255
    1446:	37 83       	std	Z+7, r19	; 0x07
    1448:	26 83       	std	Z+6, r18	; 0x06
    144a:	14 c0       	rjmp	.+40     	; 0x1474 <fputc+0x6e>
    144c:	8b 01       	movw	r16, r22
    144e:	ec 01       	movw	r28, r24
    1450:	fb 01       	movw	r30, r22
    1452:	00 84       	ldd	r0, Z+8	; 0x08
    1454:	f1 85       	ldd	r31, Z+9	; 0x09
    1456:	e0 2d       	mov	r30, r0
    1458:	19 95       	eicall
    145a:	89 2b       	or	r24, r25
    145c:	e1 f6       	brne	.-72     	; 0x1416 <fputc+0x10>
    145e:	d8 01       	movw	r26, r16
    1460:	16 96       	adiw	r26, 0x06	; 6
    1462:	8d 91       	ld	r24, X+
    1464:	9c 91       	ld	r25, X
    1466:	17 97       	sbiw	r26, 0x07	; 7
    1468:	01 96       	adiw	r24, 0x01	; 1
    146a:	17 96       	adiw	r26, 0x07	; 7
    146c:	9c 93       	st	X, r25
    146e:	8e 93       	st	-X, r24
    1470:	16 97       	sbiw	r26, 0x06	; 6
    1472:	ce 01       	movw	r24, r28
    1474:	df 91       	pop	r29
    1476:	cf 91       	pop	r28
    1478:	1f 91       	pop	r17
    147a:	0f 91       	pop	r16
    147c:	08 95       	ret

0000147e <__ultoa_invert>:
    147e:	fa 01       	movw	r30, r20
    1480:	aa 27       	eor	r26, r26
    1482:	28 30       	cpi	r18, 0x08	; 8
    1484:	51 f1       	breq	.+84     	; 0x14da <__ultoa_invert+0x5c>
    1486:	20 31       	cpi	r18, 0x10	; 16
    1488:	81 f1       	breq	.+96     	; 0x14ea <__ultoa_invert+0x6c>
    148a:	e8 94       	clt
    148c:	6f 93       	push	r22
    148e:	6e 7f       	andi	r22, 0xFE	; 254
    1490:	6e 5f       	subi	r22, 0xFE	; 254
    1492:	7f 4f       	sbci	r23, 0xFF	; 255
    1494:	8f 4f       	sbci	r24, 0xFF	; 255
    1496:	9f 4f       	sbci	r25, 0xFF	; 255
    1498:	af 4f       	sbci	r26, 0xFF	; 255
    149a:	b1 e0       	ldi	r27, 0x01	; 1
    149c:	3e d0       	rcall	.+124    	; 0x151a <__ultoa_invert+0x9c>
    149e:	b4 e0       	ldi	r27, 0x04	; 4
    14a0:	3c d0       	rcall	.+120    	; 0x151a <__ultoa_invert+0x9c>
    14a2:	67 0f       	add	r22, r23
    14a4:	78 1f       	adc	r23, r24
    14a6:	89 1f       	adc	r24, r25
    14a8:	9a 1f       	adc	r25, r26
    14aa:	a1 1d       	adc	r26, r1
    14ac:	68 0f       	add	r22, r24
    14ae:	79 1f       	adc	r23, r25
    14b0:	8a 1f       	adc	r24, r26
    14b2:	91 1d       	adc	r25, r1
    14b4:	a1 1d       	adc	r26, r1
    14b6:	6a 0f       	add	r22, r26
    14b8:	71 1d       	adc	r23, r1
    14ba:	81 1d       	adc	r24, r1
    14bc:	91 1d       	adc	r25, r1
    14be:	a1 1d       	adc	r26, r1
    14c0:	20 d0       	rcall	.+64     	; 0x1502 <__ultoa_invert+0x84>
    14c2:	09 f4       	brne	.+2      	; 0x14c6 <__ultoa_invert+0x48>
    14c4:	68 94       	set
    14c6:	3f 91       	pop	r19
    14c8:	2a e0       	ldi	r18, 0x0A	; 10
    14ca:	26 9f       	mul	r18, r22
    14cc:	11 24       	eor	r1, r1
    14ce:	30 19       	sub	r19, r0
    14d0:	30 5d       	subi	r19, 0xD0	; 208
    14d2:	31 93       	st	Z+, r19
    14d4:	de f6       	brtc	.-74     	; 0x148c <__ultoa_invert+0xe>
    14d6:	cf 01       	movw	r24, r30
    14d8:	08 95       	ret
    14da:	46 2f       	mov	r20, r22
    14dc:	47 70       	andi	r20, 0x07	; 7
    14de:	40 5d       	subi	r20, 0xD0	; 208
    14e0:	41 93       	st	Z+, r20
    14e2:	b3 e0       	ldi	r27, 0x03	; 3
    14e4:	0f d0       	rcall	.+30     	; 0x1504 <__ultoa_invert+0x86>
    14e6:	c9 f7       	brne	.-14     	; 0x14da <__ultoa_invert+0x5c>
    14e8:	f6 cf       	rjmp	.-20     	; 0x14d6 <__ultoa_invert+0x58>
    14ea:	46 2f       	mov	r20, r22
    14ec:	4f 70       	andi	r20, 0x0F	; 15
    14ee:	40 5d       	subi	r20, 0xD0	; 208
    14f0:	4a 33       	cpi	r20, 0x3A	; 58
    14f2:	18 f0       	brcs	.+6      	; 0x14fa <__ultoa_invert+0x7c>
    14f4:	49 5d       	subi	r20, 0xD9	; 217
    14f6:	31 fd       	sbrc	r19, 1
    14f8:	40 52       	subi	r20, 0x20	; 32
    14fa:	41 93       	st	Z+, r20
    14fc:	02 d0       	rcall	.+4      	; 0x1502 <__ultoa_invert+0x84>
    14fe:	a9 f7       	brne	.-22     	; 0x14ea <__ultoa_invert+0x6c>
    1500:	ea cf       	rjmp	.-44     	; 0x14d6 <__ultoa_invert+0x58>
    1502:	b4 e0       	ldi	r27, 0x04	; 4
    1504:	a6 95       	lsr	r26
    1506:	97 95       	ror	r25
    1508:	87 95       	ror	r24
    150a:	77 95       	ror	r23
    150c:	67 95       	ror	r22
    150e:	ba 95       	dec	r27
    1510:	c9 f7       	brne	.-14     	; 0x1504 <__ultoa_invert+0x86>
    1512:	00 97       	sbiw	r24, 0x00	; 0
    1514:	61 05       	cpc	r22, r1
    1516:	71 05       	cpc	r23, r1
    1518:	08 95       	ret
    151a:	9b 01       	movw	r18, r22
    151c:	ac 01       	movw	r20, r24
    151e:	0a 2e       	mov	r0, r26
    1520:	06 94       	lsr	r0
    1522:	57 95       	ror	r21
    1524:	47 95       	ror	r20
    1526:	37 95       	ror	r19
    1528:	27 95       	ror	r18
    152a:	ba 95       	dec	r27
    152c:	c9 f7       	brne	.-14     	; 0x1520 <__ultoa_invert+0xa2>
    152e:	62 0f       	add	r22, r18
    1530:	73 1f       	adc	r23, r19
    1532:	84 1f       	adc	r24, r20
    1534:	95 1f       	adc	r25, r21
    1536:	a0 1d       	adc	r26, r0
    1538:	08 95       	ret

0000153a <_exit>:
    153a:	f8 94       	cli

0000153c <__stop_program>:
    153c:	ff cf       	rjmp	.-2      	; 0x153c <__stop_program>
